
out.elf:     file format elf32-tradlittlemips


Disassembly of section .reset:

bd007000 <_reset>:
bd007000:	0f401c02 	jal	bd007008 <_startup>
bd007004:	00000000 	nop

bd007008 <_startup>:
bd007008:	401a6000 	mfc0	k0,c0_status
bd00700c:	7f5a04c0 	ext	k0,k0,0x13,0x1
bd007010:	13400005 	beqz	k0,bd007028 <_no_nmi>
bd007014:	00000000 	nop
bd007018:	3c1a9d01 	lui	k0,0x9d01
bd00701c:	275a83b0 	addiu	k0,k0,-31824
bd007020:	03400008 	jr	k0
bd007024:	00000000 	nop

bd007028 <_no_nmi>:
bd007028:	3c1da001 	lui	sp,0xa001
bd00702c:	27bdfff8 	addiu	sp,sp,-8
bd007030:	3c1ca000 	lui	gp,0xa000
bd007034:	279c7ff0 	addiu	gp,gp,32752
bd007038:	3c089d01 	lui	t0,0x9d01
bd00703c:	250883d8 	addiu	t0,t0,-31784
bd007040:	0100f809 	jalr	t0
bd007044:	00000000 	nop

bd007048 <_start_bss_init>:
bd007048:	3c08a000 	lui	t0,0xa000
bd00704c:	25080000 	addiu	t0,t0,0
bd007050:	3c09a000 	lui	t1,0xa000
bd007054:	25290000 	addiu	t1,t1,0
bd007058:	10000003 	b	bd007068 <_bss_check>
bd00705c:	00000000 	nop

bd007060 <_bss_init>:
bd007060:	ad000000 	sw	zero,0(t0)
bd007064:	25080004 	addiu	t0,t0,4

bd007068 <_bss_check>:
bd007068:	0109082b 	sltu	at,t0,t1
bd00706c:	1420fffc 	bnez	at,bd007060 <_bss_init>
bd007070:	00000000 	nop
bd007074:	3c089d01 	lui	t0,0x9d01
bd007078:	25088374 	addiu	t0,t0,-31884
bd00707c:	0100f809 	jalr	t0
bd007080:	00000000 	nop
bd007084:	3c090000 	lui	t1,0x0
bd007088:	25290000 	addiu	t1,t1,0
bd00708c:	11200010 	beqz	t1,bd0070d0 <_ramfunc_done>
bd007090:	00000000 	nop
bd007094:	3c090001 	lui	t1,0x1
bd007098:	25290000 	addiu	t1,t1,0
bd00709c:	3c0abf88 	lui	t2,0xbf88
bd0070a0:	254a2010 	addiu	t2,t2,8208
bd0070a4:	ad490000 	sw	t1,0(t2)
bd0070a8:	3c090001 	lui	t1,0x1
bd0070ac:	25290000 	addiu	t1,t1,0
bd0070b0:	3c0abf88 	lui	t2,0xbf88
bd0070b4:	254a2020 	addiu	t2,t2,8224
bd0070b8:	ad490000 	sw	t1,0(t2)
bd0070bc:	3c090001 	lui	t1,0x1
bd0070c0:	25290000 	addiu	t1,t1,0
bd0070c4:	3c0abf88 	lui	t2,0xbf88
bd0070c8:	254a2030 	addiu	t2,t2,8240
bd0070cc:	ad490000 	sw	t1,0(t2)

bd0070d0 <_ramfunc_done>:
bd0070d0:	40804800 	mtc0	zero,c0_count
bd0070d4:	240affff 	li	t2,-1
bd0070d8:	408a5800 	mtc0	t2,c0_compare
bd0070dc:	3c080040 	lui	t0,0x40
bd0070e0:	400a6000 	mfc0	t2,c0_status
bd0070e4:	010a5025 	or	t2,t0,t2
bd0070e8:	408a6000 	mtc0	t2,c0_status
bd0070ec:	3c099d00 	lui	t1,0x9d00
bd0070f0:	25296000 	addiu	t1,t1,24576
bd0070f4:	000000c0 	ehb
bd0070f8:	40897801 	mtc0	t1,c0_ebase
bd0070fc:	3c090000 	lui	t1,0x0
bd007100:	25290001 	addiu	t1,t1,1
bd007104:	240a0000 	li	t2,0
bd007108:	7d2a4944 	ins	t2,t1,0x5,0x5
bd00710c:	408a6001 	mtc0	t2,c0_intctl
bd007110:	3c090080 	lui	t1,0x80
bd007114:	40896800 	mtc0	t1,c0_cause
bd007118:	40088000 	mfc0	t0,c0_config
bd00711c:	7d090580 	ext	t1,t0,0x16,0x1
bd007120:	00094c40 	sll	t1,t1,0x11
bd007124:	40086000 	mfc0	t0,c0_status
bd007128:	3c010058 	lui	at,0x58
bd00712c:	01014024 	and	t0,t0,at
bd007130:	01284025 	or	t0,t1,t0
bd007134:	40886000 	mtc0	t0,c0_status
bd007138:	000000c0 	ehb
bd00713c:	3c089d01 	lui	t0,0x9d01
bd007140:	250883e0 	addiu	t0,t0,-31776
bd007144:	0100f809 	jalr	t0
bd007148:	00000000 	nop
bd00714c:	40086000 	mfc0	t0,c0_status
bd007150:	3c01ffbf 	lui	at,0xffbf
bd007154:	3421ffff 	ori	at,at,0xffff
bd007158:	01014024 	and	t0,t0,at
bd00715c:	40886000 	mtc0	t0,c0_status
bd007160:	30840000 	andi	a0,a0,0x0
bd007164:	30a50000 	andi	a1,a1,0x0
bd007168:	3c089d01 	lui	t0,0x9d01
bd00716c:	250881c4 	addiu	t0,t0,-32316
bd007170:	01000008 	jr	t0
bd007174:	00000000 	nop

Disassembly of section .bev_excpt:

bfc07380 <_bev_exception>:
bfc07380:	3c1a9d01 	lui	k0,0x9d01
bfc07384:	275a8218 	addiu	k0,k0,-32232
bfc07388:	03400008 	jr	k0
bfc0738c:	00000000 	nop

Disassembly of section .app_excpt:

9d006180 <_gen_exception>:
9d006180:	3c1a9d00 	lui	k0,0x9d00
9d006184:	275a7ef8 	addiu	k0,k0,32504
9d006188:	03400008 	jr	k0
9d00618c:	00000000 	nop

Disassembly of section .vector_0:

9d006200 <__vector_dispatch_0>:
9d006200:	0b4020aa 	j	9d0082a8 <_DefaultInterrupt>
9d006204:	00000000 	nop

Disassembly of section .vector_1:

9d006220 <__vector_dispatch_1>:
9d006220:	0b4020aa 	j	9d0082a8 <_DefaultInterrupt>
9d006224:	00000000 	nop

Disassembly of section .vector_2:

9d006240 <__vector_dispatch_2>:
9d006240:	0b4020aa 	j	9d0082a8 <_DefaultInterrupt>
9d006244:	00000000 	nop

Disassembly of section .vector_3:

9d006260 <__vector_dispatch_3>:
9d006260:	0b4020aa 	j	9d0082a8 <_DefaultInterrupt>
9d006264:	00000000 	nop

Disassembly of section .vector_4:

9d006280 <__vector_dispatch_4>:
9d006280:	0b4020aa 	j	9d0082a8 <_DefaultInterrupt>
9d006284:	00000000 	nop

Disassembly of section .vector_5:

9d0062a0 <__vector_dispatch_5>:
9d0062a0:	0b4020aa 	j	9d0082a8 <_DefaultInterrupt>
9d0062a4:	00000000 	nop

Disassembly of section .vector_6:

9d0062c0 <__vector_dispatch_6>:
9d0062c0:	0b4020aa 	j	9d0082a8 <_DefaultInterrupt>
9d0062c4:	00000000 	nop

Disassembly of section .vector_7:

9d0062e0 <__vector_dispatch_7>:
9d0062e0:	0b4020aa 	j	9d0082a8 <_DefaultInterrupt>
9d0062e4:	00000000 	nop

Disassembly of section .vector_8:

9d006300 <__vector_dispatch_8>:
9d006300:	0b4020aa 	j	9d0082a8 <_DefaultInterrupt>
9d006304:	00000000 	nop

Disassembly of section .vector_9:

9d006320 <__vector_dispatch_9>:
9d006320:	0b4020aa 	j	9d0082a8 <_DefaultInterrupt>
9d006324:	00000000 	nop

Disassembly of section .vector_10:

9d006340 <__vector_dispatch_10>:
9d006340:	0b4020aa 	j	9d0082a8 <_DefaultInterrupt>
9d006344:	00000000 	nop

Disassembly of section .vector_11:

9d006360 <__vector_dispatch_11>:
9d006360:	0b4020aa 	j	9d0082a8 <_DefaultInterrupt>
9d006364:	00000000 	nop

Disassembly of section .vector_12:

9d006380 <__vector_dispatch_12>:
9d006380:	0b4020aa 	j	9d0082a8 <_DefaultInterrupt>
9d006384:	00000000 	nop

Disassembly of section .vector_13:

9d0063a0 <__vector_dispatch_13>:
9d0063a0:	0b4020aa 	j	9d0082a8 <_DefaultInterrupt>
9d0063a4:	00000000 	nop

Disassembly of section .vector_14:

9d0063c0 <__vector_dispatch_14>:
9d0063c0:	0b4020aa 	j	9d0082a8 <_DefaultInterrupt>
9d0063c4:	00000000 	nop

Disassembly of section .vector_15:

9d0063e0 <__vector_dispatch_15>:
9d0063e0:	0b4020aa 	j	9d0082a8 <_DefaultInterrupt>
9d0063e4:	00000000 	nop

Disassembly of section .vector_16:

9d006400 <__vector_dispatch_16>:
9d006400:	0b4020aa 	j	9d0082a8 <_DefaultInterrupt>
9d006404:	00000000 	nop

Disassembly of section .vector_17:

9d006420 <__vector_dispatch_17>:
9d006420:	0b4020aa 	j	9d0082a8 <_DefaultInterrupt>
9d006424:	00000000 	nop

Disassembly of section .vector_18:

9d006440 <__vector_dispatch_18>:
9d006440:	0b4020aa 	j	9d0082a8 <_DefaultInterrupt>
9d006444:	00000000 	nop

Disassembly of section .vector_19:

9d006460 <__vector_dispatch_19>:
9d006460:	0b4020aa 	j	9d0082a8 <_DefaultInterrupt>
9d006464:	00000000 	nop

Disassembly of section .vector_20:

9d006480 <__vector_dispatch_20>:
9d006480:	0b4020aa 	j	9d0082a8 <_DefaultInterrupt>
9d006484:	00000000 	nop

Disassembly of section .vector_21:

9d0064a0 <__vector_dispatch_21>:
9d0064a0:	0b4020aa 	j	9d0082a8 <_DefaultInterrupt>
9d0064a4:	00000000 	nop

Disassembly of section .vector_22:

9d0064c0 <__vector_dispatch_22>:
9d0064c0:	0b4020aa 	j	9d0082a8 <_DefaultInterrupt>
9d0064c4:	00000000 	nop

Disassembly of section .vector_23:

9d0064e0 <__vector_dispatch_23>:
9d0064e0:	0b4020aa 	j	9d0082a8 <_DefaultInterrupt>
9d0064e4:	00000000 	nop

Disassembly of section .vector_24:

9d006500 <__vector_dispatch_24>:
9d006500:	0b4020aa 	j	9d0082a8 <_DefaultInterrupt>
9d006504:	00000000 	nop

Disassembly of section .vector_25:

9d006520 <__vector_dispatch_25>:
9d006520:	0b4020aa 	j	9d0082a8 <_DefaultInterrupt>
9d006524:	00000000 	nop

Disassembly of section .vector_26:

9d006540 <__vector_dispatch_26>:
9d006540:	0b4020aa 	j	9d0082a8 <_DefaultInterrupt>
9d006544:	00000000 	nop

Disassembly of section .vector_27:

9d006560 <__vector_dispatch_27>:
9d006560:	0b4020aa 	j	9d0082a8 <_DefaultInterrupt>
9d006564:	00000000 	nop

Disassembly of section .vector_28:

9d006580 <__vector_dispatch_28>:
9d006580:	0b4020aa 	j	9d0082a8 <_DefaultInterrupt>
9d006584:	00000000 	nop

Disassembly of section .vector_29:

9d0065a0 <__vector_dispatch_29>:
9d0065a0:	0b4020aa 	j	9d0082a8 <_DefaultInterrupt>
9d0065a4:	00000000 	nop

Disassembly of section .vector_30:

9d0065c0 <__vector_dispatch_30>:
9d0065c0:	0b4020aa 	j	9d0082a8 <_DefaultInterrupt>
9d0065c4:	00000000 	nop

Disassembly of section .vector_31:

9d0065e0 <__vector_dispatch_31>:
9d0065e0:	0b4020aa 	j	9d0082a8 <_DefaultInterrupt>
9d0065e4:	00000000 	nop

Disassembly of section .vector_32:

9d006600 <__vector_dispatch_32>:
9d006600:	0b4020aa 	j	9d0082a8 <_DefaultInterrupt>
9d006604:	00000000 	nop

Disassembly of section .vector_33:

9d006620 <__vector_dispatch_33>:
9d006620:	0b4020aa 	j	9d0082a8 <_DefaultInterrupt>
9d006624:	00000000 	nop

Disassembly of section .vector_34:

9d006640 <__vector_dispatch_34>:
9d006640:	0b4020aa 	j	9d0082a8 <_DefaultInterrupt>
9d006644:	00000000 	nop

Disassembly of section .vector_35:

9d006660 <__vector_dispatch_35>:
9d006660:	0b4020aa 	j	9d0082a8 <_DefaultInterrupt>
9d006664:	00000000 	nop

Disassembly of section .vector_36:

9d006680 <__vector_dispatch_36>:
9d006680:	0b4020aa 	j	9d0082a8 <_DefaultInterrupt>
9d006684:	00000000 	nop

Disassembly of section .vector_37:

9d0066a0 <__vector_dispatch_37>:
9d0066a0:	0b4020aa 	j	9d0082a8 <_DefaultInterrupt>
9d0066a4:	00000000 	nop

Disassembly of section .vector_38:

9d0066c0 <__vector_dispatch_38>:
9d0066c0:	0b4020aa 	j	9d0082a8 <_DefaultInterrupt>
9d0066c4:	00000000 	nop

Disassembly of section .vector_39:

9d0066e0 <__vector_dispatch_39>:
9d0066e0:	0b4020aa 	j	9d0082a8 <_DefaultInterrupt>
9d0066e4:	00000000 	nop

Disassembly of section .vector_40:

9d006700 <__vector_dispatch_40>:
9d006700:	0b4020aa 	j	9d0082a8 <_DefaultInterrupt>
9d006704:	00000000 	nop

Disassembly of section .vector_41:

9d006720 <__vector_dispatch_41>:
9d006720:	0b4020aa 	j	9d0082a8 <_DefaultInterrupt>
9d006724:	00000000 	nop

Disassembly of section .vector_42:

9d006740 <__vector_dispatch_42>:
9d006740:	0b4020aa 	j	9d0082a8 <_DefaultInterrupt>
9d006744:	00000000 	nop

Disassembly of section .vector_43:

9d006760 <__vector_dispatch_43>:
9d006760:	0b4020aa 	j	9d0082a8 <_DefaultInterrupt>
9d006764:	00000000 	nop

Disassembly of section .rodata:

9d007490 <.rodata>:
9d007490:	00000000 	nop
9d007494:	3fd00000 	0x3fd00000
9d007498:	00000000 	nop
9d00749c:	41f00000 	0x41f00000

Disassembly of section ._debug_exception:

bfc00480 <__DbgExecReturn>:
bfc00480:	409bf800 	mtc0	k1,c0_desave
bfc00484:	000000c0 	ehb
bfc00488:	3c1b9d01 	lui	k1,0x9d01
bfc0048c:	277b82f0 	addiu	k1,k1,-32016
bfc00490:	13600002 	beqz	k1,bfc0049c <__DbgExecReturn+0x1c>
bfc00494:	00000000 	nop
bfc00498:	409bc000 	mtc0	k1,c0_depc
bfc0049c:	401bf800 	mfc0	k1,c0_desave
bfc004a0:	000000c0 	ehb
bfc004a4:	4200001f 	deret
bfc004a8:	00000000 	nop

Disassembly of section .text.dp32subadd:

9d0074a0 <__subdf3>:
9d0074a0:	3c018000 00e13826                       ...<&8..

9d0074a8 <__adddf3>:
9d0074a8:	00055840 000b5d42 000552c0 00047d42     @X..B]...R..B}..
9d0074b8:	014f5025 00044ac0 3c088000 01485025     %PO..J.....<%PH.
9d0074c8:	00077040 000e7542 00076ac0 00067d42     @p..Bu...j..B}..
9d0074d8:	01af6825 000662c0 01a86825 256fffff     %h...b..%h....o%
9d0074e8:	2de107fe 1020008d 00000000              ...-.. .....

9d0074f4 <Blab1>:
9d0074f4:	25cfffff 	addiu	t7,t6,-1
9d0074f8:	2de107fe 	sltiu	at,t7,2046
9d0074fc:	102000bb 	beqz	at,9d0077ec <BspecB>
9d007500:	00000000 	nop

9d007504 <Blab2>:
9d007504:	3c018000 	lui	at,0x8000
9d007508:	00a12824 	and	a1,a1,at
9d00750c:	016e4023 	subu	t0,t3,t6
9d007510:	1100002c 	beqz	t0,9d0075c4 <Badd3>
9d007514:	00000000 	nop
9d007518:	19000015 	blez	t0,9d007570 <i1>
9d00751c:	00000000 	nop

9d007520 <L1>:
9d007520:	2d010020 	sltiu	at,t0,32
9d007524:	14200007 	bnez	at,9d007544 <L2>
9d007528:	00000000 	nop
9d00752c:	2108ffe0 	addi	t0,t0,-32
9d007530:	000c302b 	sltu	a2,zero,t4
9d007534:	100d0023 	beq	zero,t5,9d0075c4 <Badd3>
9d007538:	01a66025 	or	t4,t5,a2
9d00753c:	1000fff8 	b	9d007520 <L1>
9d007540:	340d0000 	li	t5,0x0

9d007544 <L2>:
9d007544:	1100001f 	beqz	t0,9d0075c4 <Badd3>
9d007548:	00000000 	nop
9d00754c:	00082022 	neg	a0,t0
9d007550:	008c3004 	sllv	a2,t4,a0
9d007554:	008d2004 	sllv	a0,t5,a0
9d007558:	010c6006 	srlv	t4,t4,t0
9d00755c:	010d6806 	srlv	t5,t5,t0
9d007560:	10c00018 	beqz	a2,9d0075c4 <Badd3>
9d007564:	008c6025 	or	t4,a0,t4
9d007568:	10000016 	b	9d0075c4 <Badd3>
9d00756c:	358c0002 	ori	t4,t4,0x2

9d007570 <i1>:
9d007570:	000e5825 	or	t3,zero,t6
9d007574:	00084023 	negu	t0,t0

9d007578 <L4>:
9d007578:	2d010020 	sltiu	at,t0,32
9d00757c:	14200007 	bnez	at,9d00759c <L5>
9d007580:	00000000 	nop
9d007584:	2108ffe0 	addi	t0,t0,-32
9d007588:	0009302b 	sltu	a2,zero,t1
9d00758c:	100a000d 	beq	zero,t2,9d0075c4 <Badd3>
9d007590:	01464825 	or	t1,t2,a2
9d007594:	1000fff8 	b	9d007578 <L4>
9d007598:	340a0000 	li	t2,0x0

9d00759c <L5>:
9d00759c:	11000009 	beqz	t0,9d0075c4 <Badd3>
9d0075a0:	00000000 	nop
9d0075a4:	00082022 	neg	a0,t0
9d0075a8:	00893004 	sllv	a2,t1,a0
9d0075ac:	008a2004 	sllv	a0,t2,a0
9d0075b0:	01094806 	srlv	t1,t1,t0
9d0075b4:	010a5006 	srlv	t2,t2,t0
9d0075b8:	10c00002 	beqz	a2,9d0075c4 <Badd3>
9d0075bc:	00894825 	or	t1,a0,t1
9d0075c0:	35290002 	ori	t1,t1,0x2

9d0075c4 <Badd3>:
9d0075c4:	00a77826 	xor	t7,a1,a3
9d0075c8:	05e0001c 	bltz	t7,9d00763c <Bsub1>
9d0075cc:	00000000 	nop
9d0075d0:	012c4821 	addu	t1,t1,t4
9d0075d4:	012c782b 	sltu	t7,t1,t4
9d0075d8:	014d5021 	addu	t2,t2,t5
9d0075dc:	014f5021 	addu	t2,t2,t7
9d0075e0:	114d0002 	beq	t2,t5,9d0075ec <L7>
9d0075e4:	00000000 	nop
9d0075e8:	014d782b 	sltu	t7,t2,t5

9d0075ec <L7>:
9d0075ec:	11e00037 	beqz	t7,9d0076cc <Bres>
9d0075f0:	00000000 	nop
9d0075f4:	312f0001 	andi	t7,t1,0x1
9d0075f8:	11e00002 	beqz	t7,9d007604 <i3>
9d0075fc:	00000000 	nop
9d007600:	35290002 	ori	t1,t1,0x2

9d007604 <i3>:
9d007604:	00094842 	srl	t1,t1,0x1
9d007608:	000a7fc0 	sll	t7,t2,0x1f
9d00760c:	012f4825 	or	t1,t1,t7
9d007610:	000a5042 	srl	t2,t2,0x1
9d007614:	3c018000 	lui	at,0x8000
9d007618:	01415025 	or	t2,t2,at
9d00761c:	256b0001 	addiu	t3,t3,1
9d007620:	240107ff 	li	at,2047
9d007624:	15610029 	bne	t3,at,9d0076cc <Bres>
9d007628:	00000000 	nop
9d00762c:	3c017ff0 	lui	at,0x7ff0
9d007630:	00a12825 	or	a1,a1,at
9d007634:	10000037 	b	9d007714 <BretA>
9d007638:	24040000 	li	a0,0

9d00763c <Bsub1>:
9d00763c:	012c782b 	sltu	t7,t1,t4
9d007640:	012c4823 	subu	t1,t1,t4
9d007644:	014f102b 	sltu	v0,t2,t7
9d007648:	014f5023 	subu	t2,t2,t7
9d00764c:	014d782b 	sltu	t7,t2,t5
9d007650:	01e27825 	or	t7,t7,v0
9d007654:	11e00007 	beqz	t7,9d007674 <i5>
9d007658:	014d5023 	subu	t2,t2,t5
9d00765c:	3c018000 	lui	at,0x8000
9d007660:	00a12826 	xor	a1,a1,at
9d007664:	0009782b 	sltu	t7,zero,t1
9d007668:	00094823 	negu	t1,t1
9d00766c:	000a5023 	negu	t2,t2
9d007670:	014f5023 	subu	t2,t2,t7

9d007674 <i5>:
9d007674:	15400008 	bnez	t2,9d007698 <L8>
9d007678:	00000000 	nop
9d00767c:	15200003 	bnez	t1,9d00768c <L9>
9d007680:	00000000 	nop
9d007684:	1000000d 	b	9d0076bc <L10>
9d007688:	240b0000 	li	t3,0

9d00768c <L9>:
9d00768c:	01205025 	move	t2,t1
9d007690:	24090000 	li	t1,0
9d007694:	256bffe0 	addiu	t3,t3,-32

9d007698 <L8>:
9d007698:	71484020 	clz	t0,t2
9d00769c:	11000007 	beqz	t0,9d0076bc <L10>
9d0076a0:	00000000 	nop
9d0076a4:	01685823 	subu	t3,t3,t0
9d0076a8:	00082022 	neg	a0,t0
9d0076ac:	00892006 	srlv	a0,t1,a0
9d0076b0:	01094804 	sllv	t1,t1,t0
9d0076b4:	010a5004 	sllv	t2,t2,t0
9d0076b8:	01445025 	or	t2,t2,a0

9d0076bc <L10>:
9d0076bc:	01497825 	or	t7,t2,t1
9d0076c0:	15e00002 	bnez	t7,9d0076cc <Bres>
9d0076c4:	00000000 	nop
9d0076c8:	24050000 	li	a1,0

9d0076cc <Bres>:
9d0076cc:	19600068 	blez	t3,9d007870 <Bund>
9d0076d0:	00000000 	nop

9d0076d4 <Blab8>:
9d0076d4:	25290400 	addiu	t1,t1,1024
9d0076d8:	2d2f0400 	sltiu	t7,t1,1024
9d0076dc:	014f5021 	addu	t2,t2,t7
9d0076e0:	014f782b 	sltu	t7,t2,t7
9d0076e4:	016f5821 	addu	t3,t3,t7
9d0076e8:	00097ac2 	srl	t7,t1,0xb
9d0076ec:	31ef0001 	andi	t7,t7,0x1
9d0076f0:	012f4823 	subu	t1,t1,t7
9d0076f4:	000922c2 	srl	a0,t1,0xb
9d0076f8:	000a7d40 	sll	t7,t2,0x15
9d0076fc:	008f2025 	or	a0,a0,t7
9d007700:	000a7840 	sll	t7,t2,0x1
9d007704:	000f7b02 	srl	t7,t7,0xc
9d007708:	00af2825 	or	a1,a1,t7
9d00770c:	000b7d00 	sll	t7,t3,0x14
9d007710:	00af2825 	or	a1,a1,t7

9d007714 <BretA>:
9d007714:	00041025 	or	v0,zero,a0
9d007718:	00051825 	or	v1,zero,a1

9d00771c <B999>:
9d00771c:	03e00008 	jr	ra
9d007720:	00000000 	nop

9d007724 <BspecA>:
9d007724:	0120782a 	slt	t7,t1,zero
9d007728:	01294821 	addu	t1,t1,t1
9d00772c:	014a5021 	addu	t2,t2,t2
9d007730:	15600023 	bnez	t3,9d0077c0 <i7>
9d007734:	014f5021 	addu	t2,t2,t7
9d007738:	01497825 	or	t7,t2,t1
9d00773c:	11e00014 	beqz	t7,9d007790 <i8>
9d007740:	00000000 	nop
9d007744:	15400008 	bnez	t2,9d007768 <L11>
9d007748:	00000000 	nop
9d00774c:	15200003 	bnez	t1,9d00775c <L12>
9d007750:	00000000 	nop
9d007754:	1000ff67 	b	9d0074f4 <Blab1>
9d007758:	240b0000 	li	t3,0

9d00775c <L12>:
9d00775c:	01205025 	move	t2,t1
9d007760:	24090000 	li	t1,0
9d007764:	256bffe0 	addiu	t3,t3,-32

9d007768 <L11>:
9d007768:	71484020 	clz	t0,t2
9d00776c:	1100ff61 	beqz	t0,9d0074f4 <Blab1>
9d007770:	00000000 	nop
9d007774:	01685823 	subu	t3,t3,t0
9d007778:	00082022 	neg	a0,t0
9d00777c:	00892006 	srlv	a0,t1,a0
9d007780:	01094804 	sllv	t1,t1,t0
9d007784:	010a5004 	sllv	t2,t2,t0
9d007788:	1000ff5a 	b	9d0074f4 <Blab1>
9d00778c:	01445025 	or	t2,t2,a0

9d007790 <i8>:
9d007790:	240107ff 	li	at,2047
9d007794:	11c10015 	beq	t6,at,9d0077ec <BspecB>
9d007798:	00000000 	nop
9d00779c:	00e74021 	addu	t0,a3,a3
9d0077a0:	01067825 	or	t7,t0,a2
9d0077a4:	15e00003 	bnez	t7,9d0077b4 <BretB>
9d0077a8:	00000000 	nop
9d0077ac:	04e0ffd9 	bltz	a3,9d007714 <BretA>
9d0077b0:	00000000 	nop

9d0077b4 <BretB>:
9d0077b4:	00061025 	or	v0,zero,a2
9d0077b8:	1000ffd8 	b	9d00771c <B999>
9d0077bc:	00071825 	or	v1,zero,a3

9d0077c0 <i7>:
9d0077c0:	01497825 	or	t7,t2,t1
9d0077c4:	15e00027 	bnez	t7,9d007864 <Bnan>
9d0077c8:	00000000 	nop
9d0077cc:	240107ff 	li	at,2047
9d0077d0:	15c1ffd0 	bne	t6,at,9d007714 <BretA>
9d0077d4:	00000000 	nop
9d0077d8:	00a77826 	xor	t7,a1,a3
9d0077dc:	05e00021 	bltz	t7,9d007864 <Bnan>
9d0077e0:	00000000 	nop
9d0077e4:	1000fff3 	b	9d0077b4 <BretB>
9d0077e8:	00000000 	nop

9d0077ec <BspecB>:
9d0077ec:	0180782a 	slt	t7,t4,zero
9d0077f0:	018c6021 	addu	t4,t4,t4
9d0077f4:	01ad6821 	addu	t5,t5,t5
9d0077f8:	15c00017 	bnez	t6,9d007858 <i11>
9d0077fc:	01af6821 	addu	t5,t5,t7
9d007800:	01ac7825 	or	t7,t5,t4
9d007804:	11e0ffc3 	beqz	t7,9d007714 <BretA>
9d007808:	00000000 	nop
9d00780c:	15a00008 	bnez	t5,9d007830 <L14>
9d007810:	00000000 	nop
9d007814:	15800003 	bnez	t4,9d007824 <L15>
9d007818:	00000000 	nop
9d00781c:	1000ff39 	b	9d007504 <Blab2>
9d007820:	240e0000 	li	t6,0

9d007824 <L15>:
9d007824:	01806825 	move	t5,t4
9d007828:	240c0000 	li	t4,0
9d00782c:	25ceffe0 	addiu	t6,t6,-32

9d007830 <L14>:
9d007830:	71a84020 	clz	t0,t5
9d007834:	1100ff33 	beqz	t0,9d007504 <Blab2>
9d007838:	00000000 	nop
9d00783c:	01c87023 	subu	t6,t6,t0
9d007840:	00082022 	neg	a0,t0
9d007844:	008c2006 	srlv	a0,t4,a0
9d007848:	010c6004 	sllv	t4,t4,t0
9d00784c:	010d6804 	sllv	t5,t5,t0
9d007850:	1000ff2c 	b	9d007504 <Blab2>
9d007854:	01a46825 	or	t5,t5,a0

9d007858 <i11>:
9d007858:	01ac7825 	or	t7,t5,t4
9d00785c:	11e0ffd5 	beqz	t7,9d0077b4 <BretB>
9d007860:	00000000 	nop

9d007864 <Bnan>:
9d007864:	3c05fff8 	lui	a1,0xfff8
9d007868:	1000ffaa 	b	9d007714 <BretA>
9d00786c:	24040000 	li	a0,0

9d007870 <Bund>:
9d007870:	24080001 	li	t0,1
9d007874:	010b4023 	subu	t0,t0,t3

9d007878 <L17>:
9d007878:	2d010020 	sltiu	at,t0,32
9d00787c:	14200007 	bnez	at,9d00789c <L18>
9d007880:	00000000 	nop
9d007884:	2108ffe0 	addi	t0,t0,-32
9d007888:	0009302b 	sltu	a2,zero,t1
9d00788c:	100a000d 	beq	zero,t2,9d0078c4 <L19>
9d007890:	01464825 	or	t1,t2,a2
9d007894:	1000fff8 	b	9d007878 <L17>
9d007898:	340a0000 	li	t2,0x0

9d00789c <L18>:
9d00789c:	11000009 	beqz	t0,9d0078c4 <L19>
9d0078a0:	00000000 	nop
9d0078a4:	00082022 	neg	a0,t0
9d0078a8:	00893004 	sllv	a2,t1,a0
9d0078ac:	008a2004 	sllv	a0,t2,a0
9d0078b0:	01094806 	srlv	t1,t1,t0
9d0078b4:	010a5006 	srlv	t2,t2,t0
9d0078b8:	10c00002 	beqz	a2,9d0078c4 <L19>
9d0078bc:	00894825 	or	t1,a0,t1
9d0078c0:	35290002 	ori	t1,t1,0x2

9d0078c4 <L19>:
9d0078c4:	1000ff83 	b	9d0076d4 <Blab8>
9d0078c8:	240b0000 	li	t3,0
9d0078cc:	00000000 	nop

Disassembly of section .text.dp32mul:

9d0078d0 <__muldf3>:
9d0078d0:	00055040 000a5542 00054ac0 00047d42     @P..BU...J..B}..
9d0078e0:	012f4825 000442c0 3c0e8000 012e4825     %H/..B.....<%H..
9d0078f0:	00076840 000d6d42 000762c0 00067d42     @h..Bm...b..B}..
9d007900:	018f6025 00065ac0 018e6025 00a72826     %`...Z..%`..&(..
9d007910:	00ae2824 254fffff 2de107fe 10200047     $(....O%...-G. .
9d007920:	00000000                                ....

9d007924 <Clab1>:
9d007924:	25afffff 	addiu	t7,t5,-1
9d007928:	2de107fe 	sltiu	at,t7,2046
9d00792c:	1020006f 	beqz	at,9d007aec <CspecB>
9d007930:	00000000 	nop

9d007934 <Clab2>:
9d007934:	25affc02 	addiu	t7,t5,-1022
9d007938:	014f5021 	addu	t2,t2,t7
9d00793c:	012c0019 	multu	t1,t4
9d007940:	00003812 	mflo	a3
9d007944:	00007010 	mfhi	t6
9d007948:	010b0019 	multu	t0,t3
9d00794c:	00002012 	mflo	a0
9d007950:	00003010 	mfhi	a2
9d007954:	012b0019 	multu	t1,t3
9d007958:	00005812 	mflo	t3
9d00795c:	00006810 	mfhi	t5
9d007960:	00cb3021 	addu	a2,a2,t3
9d007964:	00cb782b 	sltu	t7,a2,t3
9d007968:	00ed3821 	addu	a3,a3,t5
9d00796c:	00ef3821 	addu	a3,a3,t7
9d007970:	10ed0002 	beq	a3,t5,9d00797c <L20>
9d007974:	00000000 	nop
9d007978:	00ed782b 	sltu	t7,a3,t5

9d00797c <L20>:
9d00797c:	01cf7021 	addu	t6,t6,t7
9d007980:	010c0019 	multu	t0,t4
9d007984:	00004012 	mflo	t0
9d007988:	00004810 	mfhi	t1
9d00798c:	00c83021 	addu	a2,a2,t0
9d007990:	00c8782b 	sltu	t7,a2,t0
9d007994:	00e93821 	addu	a3,a3,t1
9d007998:	00ef3821 	addu	a3,a3,t7
9d00799c:	10e90002 	beq	a3,t1,9d0079a8 <L21>
9d0079a0:	00000000 	nop
9d0079a4:	00e9782b 	sltu	t7,a3,t1

9d0079a8 <L21>:
9d0079a8:	01cf7021 	addu	t6,t6,t7
9d0079ac:	00867825 	or	t7,a0,a2
9d0079b0:	11e00002 	beqz	t7,9d0079bc <i13>
9d0079b4:	00000000 	nop
9d0079b8:	34e70001 	ori	a3,a3,0x1

9d0079bc <i13>:
9d0079bc:	000e4825 	or	t1,zero,t6
9d0079c0:	05200006 	bltz	t1,9d0079dc <i14>
9d0079c4:	00074025 	or	t0,zero,a3
9d0079c8:	0100782a 	slt	t7,t0,zero
9d0079cc:	01084021 	addu	t0,t0,t0
9d0079d0:	01294821 	addu	t1,t1,t1
9d0079d4:	012f4821 	addu	t1,t1,t7
9d0079d8:	254affff 	addiu	t2,t2,-1

9d0079dc <i14>:
9d0079dc:	254fffff 	addiu	t7,t2,-1
9d0079e0:	2de107fe 	sltiu	at,t7,2046
9d0079e4:	10200068 	beqz	at,9d007b88 <Coveund>
9d0079e8:	00000000 	nop
9d0079ec:	25080400 	addiu	t0,t0,1024
9d0079f0:	2d0f0400 	sltiu	t7,t0,1024
9d0079f4:	012f4821 	addu	t1,t1,t7
9d0079f8:	012f782b 	sltu	t7,t1,t7
9d0079fc:	014f5021 	addu	t2,t2,t7

9d007a00 <Clab8>:
9d007a00:	00087ac2 	srl	t7,t0,0xb
9d007a04:	31ef0001 	andi	t7,t7,0x1
9d007a08:	010f4023 	subu	t0,t0,t7
9d007a0c:	000822c2 	srl	a0,t0,0xb
9d007a10:	00097d40 	sll	t7,t1,0x15
9d007a14:	008f2025 	or	a0,a0,t7
9d007a18:	00097840 	sll	t7,t1,0x1
9d007a1c:	000f7b02 	srl	t7,t7,0xc
9d007a20:	00af2825 	or	a1,a1,t7
9d007a24:	000a7d00 	sll	t7,t2,0x14
9d007a28:	00af2825 	or	a1,a1,t7

9d007a2c <Cret>:
9d007a2c:	00041025 	or	v0,zero,a0
9d007a30:	00051825 	or	v1,zero,a1

9d007a34 <C999>:
9d007a34:	03e00008 	jr	ra
9d007a38:	00000000 	nop

9d007a3c <CspecA>:
9d007a3c:	0100782a 	slt	t7,t0,zero
9d007a40:	01084021 	addu	t0,t0,t0
9d007a44:	01294821 	addu	t1,t1,t1
9d007a48:	1540001c 	bnez	t2,9d007abc <i15>
9d007a4c:	012f4821 	addu	t1,t1,t7
9d007a50:	01287825 	or	t7,t1,t0
9d007a54:	11e00014 	beqz	t7,9d007aa8 <i16>
9d007a58:	00000000 	nop
9d007a5c:	15200008 	bnez	t1,9d007a80 <L22>
9d007a60:	00000000 	nop
9d007a64:	15000003 	bnez	t0,9d007a74 <L23>
9d007a68:	00000000 	nop
9d007a6c:	1000ffad 	b	9d007924 <Clab1>
9d007a70:	240a0000 	li	t2,0

9d007a74 <L23>:
9d007a74:	01004825 	move	t1,t0
9d007a78:	24080000 	li	t0,0
9d007a7c:	254affe0 	addiu	t2,t2,-32

9d007a80 <L22>:
9d007a80:	712e7020 	clz	t6,t1
9d007a84:	11c0ffa7 	beqz	t6,9d007924 <Clab1>
9d007a88:	00000000 	nop
9d007a8c:	014e5023 	subu	t2,t2,t6
9d007a90:	000e3822 	neg	a3,t6
9d007a94:	00e83806 	srlv	a3,t0,a3
9d007a98:	01c84004 	sllv	t0,t0,t6
9d007a9c:	01c94804 	sllv	t1,t1,t6
9d007aa0:	1000ffa0 	b	9d007924 <Clab1>
9d007aa4:	01274825 	or	t1,t1,a3

9d007aa8 <i16>:
9d007aa8:	240107ff 	li	at,2047
9d007aac:	11a10033 	beq	t5,at,9d007b7c <Cnan>
9d007ab0:	00000000 	nop
9d007ab4:	1000ffdd 	b	9d007a2c <Cret>
9d007ab8:	00000000 	nop

9d007abc <i15>:
9d007abc:	01287825 	or	t7,t1,t0
9d007ac0:	15e0002e 	bnez	t7,9d007b7c <Cnan>
9d007ac4:	00000000 	nop
9d007ac8:	15a00005 	bnez	t5,9d007ae0 <i17>
9d007acc:	00000000 	nop
9d007ad0:	000c7840 	sll	t7,t4,0x1
9d007ad4:	01eb7825 	or	t7,t7,t3
9d007ad8:	11e00028 	beqz	t7,9d007b7c <Cnan>
9d007adc:	00000000 	nop

9d007ae0 <i17>:
9d007ae0:	240107ff 	li	at,2047
9d007ae4:	15a10021 	bne	t5,at,9d007b6c <Cinf>
9d007ae8:	00000000 	nop

9d007aec <CspecB>:
9d007aec:	0160782a 	slt	t7,t3,zero
9d007af0:	016b5821 	addu	t3,t3,t3
9d007af4:	018c6021 	addu	t4,t4,t4
9d007af8:	15a00019 	bnez	t5,9d007b60 <i18>
9d007afc:	018f6021 	addu	t4,t4,t7
9d007b00:	018b7825 	or	t7,t4,t3
9d007b04:	11e00014 	beqz	t7,9d007b58 <i19>
9d007b08:	00000000 	nop
9d007b0c:	15800008 	bnez	t4,9d007b30 <L25>
9d007b10:	00000000 	nop
9d007b14:	15600003 	bnez	t3,9d007b24 <L26>
9d007b18:	00000000 	nop
9d007b1c:	1000ff85 	b	9d007934 <Clab2>
9d007b20:	240d0000 	li	t5,0

9d007b24 <L26>:
9d007b24:	01606025 	move	t4,t3
9d007b28:	240b0000 	li	t3,0
9d007b2c:	25adffe0 	addiu	t5,t5,-32

9d007b30 <L25>:
9d007b30:	71863020 	clz	a2,t4
9d007b34:	10c0ff7f 	beqz	a2,9d007934 <Clab2>
9d007b38:	00000000 	nop
9d007b3c:	01a66823 	subu	t5,t5,a2
9d007b40:	00067022 	neg	t6,a2
9d007b44:	01cb7006 	srlv	t6,t3,t6
9d007b48:	00cb5804 	sllv	t3,t3,a2
9d007b4c:	00cc6004 	sllv	t4,t4,a2
9d007b50:	1000ff78 	b	9d007934 <Clab2>
9d007b54:	018e6025 	or	t4,t4,t6

9d007b58 <i19>:
9d007b58:	1000ffb4 	b	9d007a2c <Cret>
9d007b5c:	24040000 	li	a0,0

9d007b60 <i18>:
9d007b60:	018b7825 	or	t7,t4,t3
9d007b64:	15e00005 	bnez	t7,9d007b7c <Cnan>
9d007b68:	00000000 	nop

9d007b6c <Cinf>:
9d007b6c:	3c017ff0 	lui	at,0x7ff0
9d007b70:	00a12825 	or	a1,a1,at
9d007b74:	1000ffad 	b	9d007a2c <Cret>
9d007b78:	24040000 	li	a0,0

9d007b7c <Cnan>:
9d007b7c:	3c05fff8 	lui	a1,0xfff8
9d007b80:	1000ffaa 	b	9d007a2c <Cret>
9d007b84:	24040000 	li	a0,0

9d007b88 <Coveund>:
9d007b88:	1d40fff8 	bgtz	t2,9d007b6c <Cinf>
9d007b8c:	00000000 	nop
9d007b90:	240e0001 	li	t6,1
9d007b94:	01ca7023 	subu	t6,t6,t2

9d007b98 <L28>:
9d007b98:	2dc10020 	sltiu	at,t6,32
9d007b9c:	14200007 	bnez	at,9d007bbc <L29>
9d007ba0:	00000000 	nop
9d007ba4:	21ceffe0 	addi	t6,t6,-32
9d007ba8:	0008302b 	sltu	a2,zero,t0
9d007bac:	1009000d 	beq	zero,t1,9d007be4 <L30>
9d007bb0:	01264025 	or	t0,t1,a2
9d007bb4:	1000fff8 	b	9d007b98 <L28>
9d007bb8:	34090000 	li	t1,0x0

9d007bbc <L29>:
9d007bbc:	11c00009 	beqz	t6,9d007be4 <L30>
9d007bc0:	00000000 	nop
9d007bc4:	000e3822 	neg	a3,t6
9d007bc8:	00e83004 	sllv	a2,t0,a3
9d007bcc:	00e93804 	sllv	a3,t1,a3
9d007bd0:	01c84006 	srlv	t0,t0,t6
9d007bd4:	01c94806 	srlv	t1,t1,t6
9d007bd8:	10c00002 	beqz	a2,9d007be4 <L30>
9d007bdc:	00e84025 	or	t0,a3,t0
9d007be0:	35080002 	ori	t0,t0,0x2

9d007be4 <L30>:
9d007be4:	25080400 	addiu	t0,t0,1024
9d007be8:	2d0f0400 	sltiu	t7,t0,1024
9d007bec:	012f4821 	addu	t1,t1,t7
9d007bf0:	1000ff83 	b	9d007a00 <Clab8>
9d007bf4:	000957c2 	srl	t2,t1,0x1f
9d007bf8:	00000000 	nop

Disassembly of section .text:

9d007bfc <NU32DIP_Startup>:
#include "nu32dip.h"

void NU32DIP_Startup() {
9d007bfc:	27bdfff8 	addiu	sp,sp,-8
9d007c00:	afbf0004 	sw	ra,4(sp)
    __builtin_disable_interrupts(); // disable interrupts while initializing things
9d007c04:	41626000 	di	v0
9d007c08:	000000c0 	ehb

    // set the CP0 CONFIG register to indicate that kseg0 is cacheable (0x3)
    __builtin_mtc0(_CP0_CONFIG, _CP0_CONFIG_SELECT, 0xa4210583);
9d007c0c:	3c02a421 	lui	v0,0xa421
9d007c10:	24420583 	addiu	v0,v0,1411
9d007c14:	40828000 	mtc0	v0,c0_config
9d007c18:	000000c0 	ehb

    // 0 data RAM access wait states
    BMXCONbits.BMXWSDRM = 0x0;
9d007c1c:	3c02bf88 	lui	v0,0xbf88
9d007c20:	8c432000 	lw	v1,8192(v0)
9d007c24:	7c033184 	ins	v1,zero,0x6,0x1
9d007c28:	ac432000 	sw	v1,8192(v0)

    // enable multi vector interrupts
    INTCONbits.MVEC = 0x1;
9d007c2c:	3c02bf88 	lui	v0,0xbf88
9d007c30:	8c441000 	lw	a0,4096(v0)
9d007c34:	24030001 	li	v1,1
9d007c38:	7c646304 	ins	a0,v1,0xc,0x1
9d007c3c:	ac441000 	sw	a0,4096(v0)

    // disable JTAG to get pins back
    DDPCONbits.JTAGEN = 0;
9d007c40:	3c02bf81 	lui	v0,0xbf81
9d007c44:	9444f200 	lhu	a0,-3584(v0)
9d007c48:	7c0418c4 	ins	a0,zero,0x3,0x1
9d007c4c:	a444f200 	sh	a0,-3584(v0)

    // do your TRIS and LAT commands here
    TRISBCLR = 0b110000; // B4 and B5 LEDs
9d007c50:	3c02bf88 	lui	v0,0xbf88
9d007c54:	24040030 	li	a0,48
9d007c58:	ac446114 	sw	a0,24852(v0)
    TRISASET = 0b010000; // A4 user button
9d007c5c:	3c02bf88 	lui	v0,0xbf88
9d007c60:	24040010 	li	a0,16
9d007c64:	ac446018 	sw	a0,24600(v0)
    //NU32_LED1 = 1; // LED1 is off
    NU32DIP_YELLOW = 1;
9d007c68:	3c02bf88 	lui	v0,0xbf88
9d007c6c:	94446130 	lhu	a0,24880(v0)
9d007c70:	7c642944 	ins	a0,v1,0x5,0x1
9d007c74:	a4446130 	sh	a0,24880(v0)
    //NU32_LED2 = 0; // LED2 is on
    NU32DIP_GREEN = 0;
9d007c78:	94446130 	lhu	a0,24880(v0)
9d007c7c:	7c042104 	ins	a0,zero,0x4,0x1
9d007c80:	a4446130 	sh	a0,24880(v0)

    //UART1 pins
    U1RXRbits.U1RXR = 0b0000; // Set A2 to U1RX
9d007c84:	3c02bf81 	lui	v0,0xbf81
9d007c88:	9044fa50 	lbu	a0,-1456(v0)
9d007c8c:	7c041804 	ins	a0,zero,0x0,0x4
9d007c90:	a044fa50 	sb	a0,-1456(v0)
    RPB3Rbits.RPB3R = 0b0001; // Set B3 to U1TX
9d007c94:	3c02bf81 	lui	v0,0xbf81
9d007c98:	9044fb38 	lbu	a0,-1224(v0)
9d007c9c:	7c641804 	ins	a0,v1,0x0,0x4
9d007ca0:	a044fb38 	sb	a0,-1224(v0)

    // turn on UART1 without an interrupt
    U1MODEbits.BRGH = 0; // set baud to NU32_DESIRED_BAUD
9d007ca4:	3c02bf80 	lui	v0,0xbf80
9d007ca8:	94446000 	lhu	a0,24576(v0)
9d007cac:	7c0418c4 	ins	a0,zero,0x3,0x1
9d007cb0:	a4446000 	sh	a0,24576(v0)
    U1BRG = ((NU32DIP_SYS_FREQ / NU32DIP_DESIRED_BAUD) / 16) - 1;
9d007cb4:	3c04bf80 	lui	a0,0xbf80
9d007cb8:	2405000c 	li	a1,12
9d007cbc:	ac856040 	sw	a1,24640(a0)

    // 8 bit, no parity bit, and 1 stop bit (8N1 setup)
    U1MODEbits.PDSEL = 0;
9d007cc0:	94446000 	lhu	a0,24576(v0)
9d007cc4:	7c041044 	ins	a0,zero,0x1,0x2
9d007cc8:	a4446000 	sh	a0,24576(v0)
    U1MODEbits.STSEL = 0;
9d007ccc:	94446000 	lhu	a0,24576(v0)
9d007cd0:	7c040004 	ins	a0,zero,0x0,0x1
9d007cd4:	a4446000 	sh	a0,24576(v0)

    // configure TX & RX pins as output & input pins
    U1STAbits.UTXEN = 1;
9d007cd8:	3c04bf80 	lui	a0,0xbf80
9d007cdc:	8c856010 	lw	a1,24592(a0)
9d007ce0:	7c655284 	ins	a1,v1,0xa,0x1
9d007ce4:	ac856010 	sw	a1,24592(a0)
    U1STAbits.URXEN = 1;
9d007ce8:	8c856010 	lw	a1,24592(a0)
9d007cec:	7c656304 	ins	a1,v1,0xc,0x1
9d007cf0:	ac856010 	sw	a1,24592(a0)
    // configure without hardware flow control
    U1MODEbits.UEN = 0;
9d007cf4:	94446000 	lhu	a0,24576(v0)
9d007cf8:	7c044a04 	ins	a0,zero,0x8,0x2
9d007cfc:	a4446000 	sh	a0,24576(v0)

    // enable the uart
    U1MODEbits.ON = 1;
9d007d00:	94446000 	lhu	a0,24576(v0)
9d007d04:	7c647bc4 	ins	a0,v1,0xf,0x1
9d007d08:	a4446000 	sh	a0,24576(v0)

    __builtin_enable_interrupts();
9d007d0c:	41626020 	ei	v0
}
9d007d10:	8fbf0004 	lw	ra,4(sp)
9d007d14:	03e00008 	jr	ra
9d007d18:	27bd0008 	addiu	sp,sp,8

9d007d1c <NU32DIP_ReadUART1>:
// block other functions until you get a '\r' or '\n'
// send the pointer to your char array and the number of elements in the array

void NU32DIP_ReadUART1(char * message, int maxLength) {
    char data = 0;
    int complete = 0, num_bytes = 0;
9d007d1c:	00001025 	move	v0,zero
    // loop until you get a '\r' or '\n'
    while (!complete) {
        if (U1STAbits.URXDA) { // if data is available
9d007d20:	3c0abf80 	lui	t2,0xbf80
            data = U1RXREG; // read the data
9d007d24:	3c09bf80 	lui	t1,0xbf80
            if ((data == '\n') || (data == '\r')) {
9d007d28:	2408000a 	li	t0,10
9d007d2c:	2407000d 	li	a3,13
        if (U1STAbits.URXDA) { // if data is available
9d007d30:	8d436010 	lw	v1,24592(t2)
9d007d34:	30630001 	andi	v1,v1,0x1
9d007d38:	1060fffd 	beqz	v1,9d007d30 <NU32DIP_ReadUART1+0x14>
9d007d3c:	00000000 	nop
            data = U1RXREG; // read the data
9d007d40:	8d236030 	lw	v1,24624(t1)
9d007d44:	7c031c20 	seb	v1,v1
            if ((data == '\n') || (data == '\r')) {
9d007d48:	5068000b 	beql	v1,t0,9d007d78 <NU32DIP_ReadUART1+0x5c>
9d007d4c:	00822021 	addu	a0,a0,v0
9d007d50:	10670008 	beq	v1,a3,9d007d74 <NU32DIP_ReadUART1+0x58>
9d007d54:	24460001 	addiu	a2,v0,1
                complete = 1;
            } else {
                message[num_bytes] = data;
                ++num_bytes;
                // roll over if the array is too small
                if (num_bytes >= maxLength) {
9d007d58:	00c5302a 	slt	a2,a2,a1
                    num_bytes = 0;
9d007d5c:	244b0001 	addiu	t3,v0,1
                message[num_bytes] = data;
9d007d60:	00821021 	addu	v0,a0,v0
9d007d64:	a0430000 	sb	v1,0(v0)
9d007d68:	01601025 	move	v0,t3
9d007d6c:	1000fff0 	b	9d007d30 <NU32DIP_ReadUART1+0x14>
9d007d70:	0006100a 	movz	v0,zero,a2
                }
            }
        }
    }
    // end the string
    message[num_bytes] = '\0';
9d007d74:	00822021 	addu	a0,a0,v0
}
9d007d78:	03e00008 	jr	ra
9d007d7c:	a0800000 	sb	zero,0(a0)

9d007d80 <NU32DIP_WriteUART1>:

// Write a character array using UART1

void NU32DIP_WriteUART1(const char * string) {
    while (*string != '\0') {
9d007d80:	80820000 	lb	v0,0(a0)
9d007d84:	1040000b 	beqz	v0,9d007db4 <NU32DIP_WriteUART1+0x34>
9d007d88:	3c06bf80 	lui	a2,0xbf80
        while (U1STAbits.UTXBF) {
            ; // wait until tx buffer isn't full
        }
        U1TXREG = *string;
9d007d8c:	3c05bf80 	lui	a1,0xbf80
        while (U1STAbits.UTXBF) {
9d007d90:	8cc36010 	lw	v1,24592(a2)
9d007d94:	7c630240 	ext	v1,v1,0x9,0x1
9d007d98:	1460fffd 	bnez	v1,9d007d90 <NU32DIP_WriteUART1+0x10>
9d007d9c:	00000000 	nop
        U1TXREG = *string;
9d007da0:	aca26020 	sw	v0,24608(a1)
        ++string;
9d007da4:	24840001 	addiu	a0,a0,1
    while (*string != '\0') {
9d007da8:	80820000 	lb	v0,0(a0)
9d007dac:	1440fff8 	bnez	v0,9d007d90 <NU32DIP_WriteUART1+0x10>
9d007db0:	00000000 	nop
    }
}
9d007db4:	03e00008 	jr	ra
9d007db8:	00000000 	nop

9d007dbc <ServoInit>:
#include "servo.h"
#include "nu32dip.h"

void ServoInit(){
9d007dbc:	27bdffd8 	addiu	sp,sp,-40
9d007dc0:	afbf0024 	sw	ra,36(sp)
9d007dc4:	afb30020 	sw	s3,32(sp)
9d007dc8:	afb2001c 	sw	s2,28(sp)
9d007dcc:	afb10018 	sw	s1,24(sp)
9d007dd0:	afb00014 	sw	s0,20(sp)
    RPB15Rbits.RPB15R = 0b0101; // B15 as OC1
9d007dd4:	3c02bf81 	lui	v0,0xbf81
9d007dd8:	9043fb68 	lbu	v1,-1176(v0)
9d007ddc:	24040005 	li	a0,5
9d007de0:	7c831804 	ins	v1,a0,0x0,0x4
9d007de4:	a043fb68 	sb	v1,-1176(v0)
    T2CONbits.TCKPS = 4;     // Timer2 prescaler N=16 (1:4)
9d007de8:	3c11bf80 	lui	s1,0xbf80
9d007dec:	96220800 	lhu	v0,2048(s1)
9d007df0:	24030004 	li	v1,4
9d007df4:	7c623104 	ins	v0,v1,0x4,0x3
9d007df8:	a6220800 	sh	v0,2048(s1)
    PR2 = 60000 - 1;              // period = (PR2+1) * N * (1/48000000) = 50Hz
9d007dfc:	3c12bf80 	lui	s2,0xbf80
9d007e00:	3402ea5f 	li	v0,0xea5f
9d007e04:	ae420820 	sw	v0,2080(s2)
    TMR2 = 0;                // initial TMR2 count is 0
9d007e08:	3c02bf80 	lui	v0,0xbf80
9d007e0c:	ac400810 	sw	zero,2064(v0)
    OC1CONbits.OCM = 0b110;  // PWM mode without fault pin; other OC1CON bits are defaults
9d007e10:	3c10bf80 	lui	s0,0xbf80
9d007e14:	96023000 	lhu	v0,12288(s0)
9d007e18:	24030006 	li	v1,6
9d007e1c:	7c621004 	ins	v0,v1,0x0,0x3
9d007e20:	a6023000 	sh	v0,12288(s0)
    OC1CONbits.OCTSEL = 0;   // Use timer2
9d007e24:	96023000 	lhu	v0,12288(s0)
9d007e28:	7c0218c4 	ins	v0,zero,0x3,0x1
9d007e2c:	a6023000 	sh	v0,12288(s0)
    OC1RS = .25*(PR2 + 1);   // duty cycle = OC1RS/(PR2+1) = 25% 90 >> 2ms
9d007e30:	8e440820 	lw	a0,2080(s2)
9d007e34:	0f4020cd 	jal	9d008334 <__floatunsidf>
9d007e38:	24840001 	addiu	a0,a0,1
9d007e3c:	3c139d00 	lui	s3,0x9d00
9d007e40:	8e667490 	lw	a2,29840(s3)
9d007e44:	8e677494 	lw	a3,29844(s3)
9d007e48:	00402025 	move	a0,v0
9d007e4c:	0f401e34 	jal	9d0078d0 <__muldf3>
9d007e50:	00602825 	move	a1,v1
9d007e54:	00402025 	move	a0,v0
9d007e58:	0f401ff5 	jal	9d007fd4 <__fixunsdfsi>
9d007e5c:	00602825 	move	a1,v1
9d007e60:	3c03bf80 	lui	v1,0xbf80
9d007e64:	ac623020 	sw	v0,12320(v1)
    OC1R = .25*(PR2 + 1);    // initialize before turning OC1 on; afterward it is read-only
9d007e68:	8e440820 	lw	a0,2080(s2)
9d007e6c:	0f4020cd 	jal	9d008334 <__floatunsidf>
9d007e70:	24840001 	addiu	a0,a0,1
9d007e74:	8e667490 	lw	a2,29840(s3)
9d007e78:	8e677494 	lw	a3,29844(s3)
9d007e7c:	00402025 	move	a0,v0
9d007e80:	0f401e34 	jal	9d0078d0 <__muldf3>
9d007e84:	00602825 	move	a1,v1
9d007e88:	00402025 	move	a0,v0
9d007e8c:	0f401ff5 	jal	9d007fd4 <__fixunsdfsi>
9d007e90:	00602825 	move	a1,v1
9d007e94:	3c03bf80 	lui	v1,0xbf80
9d007e98:	ac623010 	sw	v0,12304(v1)
    T2CONbits.ON = 1;        // turn on Timer2
9d007e9c:	96220800 	lhu	v0,2048(s1)
9d007ea0:	24030001 	li	v1,1
9d007ea4:	7c627bc4 	ins	v0,v1,0xf,0x1
9d007ea8:	a6220800 	sh	v0,2048(s1)
    OC1CONbits.ON = 1;       // turn on OC1
9d007eac:	96023000 	lhu	v0,12288(s0)
9d007eb0:	7c627bc4 	ins	v0,v1,0xf,0x1
9d007eb4:	a6023000 	sh	v0,12288(s0)
}
9d007eb8:	8fbf0024 	lw	ra,36(sp)
9d007ebc:	8fb30020 	lw	s3,32(sp)
9d007ec0:	8fb2001c 	lw	s2,28(sp)
9d007ec4:	8fb10018 	lw	s1,24(sp)
9d007ec8:	8fb00014 	lw	s0,20(sp)
9d007ecc:	03e00008 	jr	ra
9d007ed0:	27bd0028 	addiu	sp,sp,40

9d007ed4 <SetAng>:

void SetAng(int ang){
    // 180 >> 2.5ms >> 625
    // 0 >> 1.5ms >> 375
    // ang %= 180;
    int duty = ang * 35 + 100;
9d007ed4:	000410c0 	sll	v0,a0,0x3
9d007ed8:	00441021 	addu	v0,v0,a0
9d007edc:	00021080 	sll	v0,v0,0x2
9d007ee0:	00441023 	subu	v0,v0,a0
9d007ee4:	24420064 	addiu	v0,v0,100
    OC1RS = duty;
9d007ee8:	3c03bf80 	lui	v1,0xbf80
9d007eec:	ac623020 	sw	v0,12320(v1)
}
9d007ef0:	03e00008 	jr	ra
9d007ef4:	00000000 	nop

Disassembly of section .text.general_exception:

9d007ef8 <_general_exception_context>:
9d007ef8:	27bdffa8 	addiu	sp,sp,-88
9d007efc:	afa10004 	sw	at,4(sp)
9d007f00:	afa20008 	sw	v0,8(sp)
9d007f04:	afa3000c 	sw	v1,12(sp)
9d007f08:	afa40010 	sw	a0,16(sp)
9d007f0c:	afa50014 	sw	a1,20(sp)
9d007f10:	afa60018 	sw	a2,24(sp)
9d007f14:	afa7001c 	sw	a3,28(sp)
9d007f18:	afa80020 	sw	t0,32(sp)
9d007f1c:	afa90024 	sw	t1,36(sp)
9d007f20:	afaa0028 	sw	t2,40(sp)
9d007f24:	afab002c 	sw	t3,44(sp)
9d007f28:	afac0030 	sw	t4,48(sp)
9d007f2c:	afad0034 	sw	t5,52(sp)
9d007f30:	afae0038 	sw	t6,56(sp)
9d007f34:	afaf003c 	sw	t7,60(sp)
9d007f38:	afb80040 	sw	t8,64(sp)
9d007f3c:	afb90044 	sw	t9,68(sp)
9d007f40:	afbf0048 	sw	ra,72(sp)
9d007f44:	00004012 	mflo	t0
9d007f48:	afa8004c 	sw	t0,76(sp)
9d007f4c:	00004010 	mfhi	t0
9d007f50:	afa80050 	sw	t0,80(sp)
9d007f54:	3c1a9d01 	lui	k0,0x9d01
9d007f58:	275a8260 	addiu	k0,k0,-32160
9d007f5c:	00000000 	nop
9d007f60:	40046800 	mfc0	a0,c0_cause
9d007f64:	40056000 	mfc0	a1,c0_status
9d007f68:	0340f809 	jalr	k0
9d007f6c:	00000000 	nop
9d007f70:	8fa80050 	lw	t0,80(sp)
9d007f74:	01000011 	mthi	t0
9d007f78:	8fa8004c 	lw	t0,76(sp)
9d007f7c:	01000013 	mtlo	t0
9d007f80:	8fa10004 	lw	at,4(sp)
9d007f84:	8fa20008 	lw	v0,8(sp)
9d007f88:	8fa3000c 	lw	v1,12(sp)
9d007f8c:	8fa40010 	lw	a0,16(sp)
9d007f90:	8fa50014 	lw	a1,20(sp)
9d007f94:	8fa60018 	lw	a2,24(sp)
9d007f98:	8fa7001c 	lw	a3,28(sp)
9d007f9c:	8fa80020 	lw	t0,32(sp)
9d007fa0:	8fa90024 	lw	t1,36(sp)
9d007fa4:	8faa0028 	lw	t2,40(sp)
9d007fa8:	8fab002c 	lw	t3,44(sp)
9d007fac:	8fac0030 	lw	t4,48(sp)
9d007fb0:	8fad0034 	lw	t5,52(sp)
9d007fb4:	8fae0038 	lw	t6,56(sp)
9d007fb8:	8faf003c 	lw	t7,60(sp)
9d007fbc:	8fb80040 	lw	t8,64(sp)
9d007fc0:	8fb90044 	lw	t9,68(sp)
9d007fc4:	8fbf0048 	lw	ra,72(sp)
9d007fc8:	27bd0058 	addiu	sp,sp,88
9d007fcc:	000000c0 	ehb
9d007fd0:	42000018 	eret

Disassembly of section .text.dptoul:

9d007fd4 <__fixunsdfsi>:
9d007fd4:	00053ac0 00045542 00ea3825 3c018000     .:..BU..%8.....<
9d007fe4:	00e13825 00055040 000a5542 2406041e     %8..@P..BU.....$
9d007ff4:	00ca3023 04c0000c 00000000 2cc10020     #0.......... ..,
9d008004:	14200002 00000000 34070000              .. ........4

9d008010 <L43>:
9d008010:	04a10002 	bgez	a1,9d00801c <i53>
9d008014:	00c73806 	srlv	a3,a3,a2
9d008018:	00073823 	negu	a3,a3

9d00801c <i53>:
9d00801c:	00071025 	or	v0,zero,a3

9d008020 <K999>:
9d008020:	03e00008 	jr	ra
9d008024:	00000000 	nop
9d008028:	00000000 	nop

9d00802c <Knaninf>:
9d00802c:	10800002 	beqz	a0,9d008038 <i54>
9d008030:	00000000 	nop
9d008034:	34a50001 	ori	a1,a1,0x1

9d008038 <i54>:
9d008038:	3c017ff0 	lui	at,0x7ff0
9d00803c:	34210001 	ori	at,at,0x1
9d008040:	00a1082b 	sltu	at,a1,at
9d008044:	14200003 	bnez	at,9d008054 <i55>
9d008048:	00000000 	nop
9d00804c:	1000fff4 	b	9d008020 <K999>
9d008050:	3c028000 	lui	v0,0x8000

9d008054 <i55>:
9d008054:	1000fff2 	b	9d008020 <K999>
9d008058:	2402ffff 	li	v0,-1
9d00805c:	00000000 	nop

Disassembly of section .text.dinit.startup:

9d008060 <__pic32_data_init_impl>:
9d008060:	3c089d01 	lui	t0,0x9d01
9d008064:	250883c8 	addiu	t0,t0,-31800
9d008068:	1100001b 	beqz	t0,9d0080d8 <_dinit_end+0x18>
9d00806c:	00000000 	nop
9d008070:	8d090000 	lw	t1,0(t0)
9d008074:	11200018 	beqz	t1,9d0080d8 <_dinit_end+0x18>
9d008078:	25080004 	addiu	t0,t0,4
9d00807c:	8d0a0000 	lw	t2,0(t0)
9d008080:	25080004 	addiu	t0,t0,4
9d008084:	8d0b0000 	lw	t3,0(t0)
9d008088:	11600009 	beqz	t3,9d0080b0 <_dinit_clear>
9d00808c:	25080004 	addiu	t0,t0,4

9d008090 <_dinit_copy>:
9d008090:	910c0000 	lbu	t4,0(t0)
9d008094:	254affff 	addiu	t2,t2,-1
9d008098:	25080001 	addiu	t0,t0,1
9d00809c:	a12c0000 	sb	t4,0(t1)
9d0080a0:	1540fffb 	bnez	t2,9d008090 <_dinit_copy>
9d0080a4:	25290001 	addiu	t1,t1,1
9d0080a8:	10000005 	b	9d0080c0 <_dinit_end>
9d0080ac:	00000000 	nop

9d0080b0 <_dinit_clear>:
9d0080b0:	a1200000 	sb	zero,0(t1)
9d0080b4:	254affff 	addiu	t2,t2,-1
9d0080b8:	1540fffd 	bnez	t2,9d0080b0 <_dinit_clear>
9d0080bc:	25290001 	addiu	t1,t1,1

9d0080c0 <_dinit_end>:
9d0080c0:	25080003 	addiu	t0,t0,3
9d0080c4:	240afffc 	li	t2,-4
9d0080c8:	01484024 	and	t0,t2,t0
9d0080cc:	8d090000 	lw	t1,0(t0)
9d0080d0:	1520ffe7 	bnez	t1,9d008070 <__pic32_data_init_impl+0x10>
9d0080d4:	00000000 	nop
9d0080d8:	03e00008 	jr	ra
9d0080dc:	00000000 	nop

Disassembly of section .text.litodp:

9d0080e0 <__floatsidf>:
9d0080e0:	24050000 00054825 00053825 00043025     ...$%H..%8..%0..
9d0080f0:	10c0000c 00000000 04c10006 00000000     ................
9d008100:	3c098000 0005502b 00052823 00063023     ...<+P..#(..#0..
9d008110:	00ca3023                                #0..

9d008114 <i40>:
9d008114:	2407041e 	li	a3,1054
9d008118:	70c84020 	clz	t0,a2
9d00811c:	00e83823 	subu	a3,a3,t0
9d008120:	01063004 	sllv	a2,a2,t0

9d008124 <i39>:
9d008124:	000542c2 	srl	t0,a1,0xb
9d008128:	00065540 	sll	t2,a2,0x15
9d00812c:	010a4025 	or	t0,t0,t2
9d008130:	00065040 	sll	t2,a2,0x1
9d008134:	000a5302 	srl	t2,t2,0xc
9d008138:	012a4825 	or	t1,t1,t2
9d00813c:	00075500 	sll	t2,a3,0x14
9d008140:	012a4825 	or	t1,t1,t2
9d008144:	00081025 	or	v0,zero,t0
9d008148:	00091825 	or	v1,zero,t1

9d00814c <E999>:
9d00814c:	03e00008 	jr	ra
9d008150:	00000000 	nop
9d008154:	00000000 	nop

Disassembly of section .text:

9d008158 <main>:
#include "servo.h"
#include "nu32dip.h"

int main(){
9d008158:	27bdffe0 	addiu	sp,sp,-32
9d00815c:	afbf001c 	sw	ra,28(sp)
9d008160:	afb10018 	sw	s1,24(sp)
    NU32DIP_Startup();
9d008164:	0f401eff 	jal	9d007bfc <NU32DIP_Startup>
9d008168:	afb00014 	sw	s0,20(sp)
    ServoInit();
9d00816c:	0f401f6f 	jal	9d007dbc <ServoInit>
9d008170:	00008825 	move	s1,zero
    while(1){
        SetAng(45);
        _CP0_SET_COUNT(0);
        while(_CP0_GET_COUNT() < 24000000*4){}
9d008174:	3c1005b8 	lui	s0,0x5b8
9d008178:	3610d800 	ori	s0,s0,0xd800
        SetAng(45);
9d00817c:	0f401fb5 	jal	9d007ed4 <SetAng>
9d008180:	2404002d 	li	a0,45
        _CP0_SET_COUNT(0);
9d008184:	40914800 	mtc0	s1,c0_count
9d008188:	000000c0 	ehb
        while(_CP0_GET_COUNT() < 24000000*4){}
9d00818c:	40024800 	mfc0	v0,c0_count
9d008190:	0050102b 	sltu	v0,v0,s0
9d008194:	1440fffd 	bnez	v0,9d00818c <main+0x34>
9d008198:	00000000 	nop
        SetAng(135);
9d00819c:	0f401fb5 	jal	9d007ed4 <SetAng>
9d0081a0:	24040087 	li	a0,135
        _CP0_SET_COUNT(0);
9d0081a4:	40914800 	mtc0	s1,c0_count
9d0081a8:	000000c0 	ehb
        while(_CP0_GET_COUNT() < 24000000*4){}
9d0081ac:	40024800 	mfc0	v0,c0_count
9d0081b0:	0050102b 	sltu	v0,v0,s0
9d0081b4:	1440fffd 	bnez	v0,9d0081ac <main+0x54>
9d0081b8:	00000000 	nop
9d0081bc:	1000ffef 	b	9d00817c <main+0x24>
9d0081c0:	00000000 	nop

Disassembly of section .text.main_entry:

9d0081c4 <_main_entry>:
9d0081c4:	3c040000 	lui	a0,0x0
9d0081c8:	27bdffe8 	addiu	sp,sp,-24
9d0081cc:	24840000 	addiu	a0,a0,0
9d0081d0:	10800003 	beqz	a0,9d0081e0 <_main_entry+0x1c>
9d0081d4:	afbf0014 	sw	ra,20(sp)
9d0081d8:	0080f809 	jalr	a0
9d0081dc:	00000000 	nop
9d0081e0:	30840000 	andi	a0,a0,0x0
9d0081e4:	30a50000 	andi	a1,a1,0x0
9d0081e8:	3c089d01 	lui	t0,0x9d01
9d0081ec:	25088158 	addiu	t0,t0,-32424
9d0081f0:	0100f809 	jalr	t0
9d0081f4:	00000000 	nop

9d0081f8 <__crt0_exit>:
9d0081f8:	3c020000 24420000 10400003 00000000     ...<..B$..@.....
9d008208:	0040f809 00000000 1000fff9 00000000     ..@.............

Disassembly of section .text._bootstrap_exception_handler:

9d008218 <_bootstrap_exception_handler>:
9d008218:	3c020000 	lui	v0,0x0
9d00821c:	24420000 	addiu	v0,v0,0
9d008220:	10400005 	beqz	v0,9d008238 <_bootstrap_exception_handler+0x20>
9d008224:	3c020000 	lui	v0,0x0
9d008228:	24420000 	addiu	v0,v0,0
9d00822c:	10400003 	beqz	v0,9d00823c <_bootstrap_exception_handler+0x24>
9d008230:	3c029d01 	lui	v0,0x9d01
9d008234:	7000003f 	sdbbp
9d008238:	3c029d01 	lui	v0,0x9d01
9d00823c:	244282f0 	addiu	v0,v0,-32016
9d008240:	10400005 	beqz	v0,9d008258 <_bootstrap_exception_handler+0x40>
9d008244:	00000000 	nop
9d008248:	27bdffe8 	addiu	sp,sp,-24
9d00824c:	afbf0014 	sw	ra,20(sp)
9d008250:	0040f809 	jalr	v0
9d008254:	00000000 	nop
9d008258:	1000ffff 	b	9d008258 <_bootstrap_exception_handler+0x40>
9d00825c:	00000000 	nop

Disassembly of section .text._general_exception_handler:

9d008260 <_general_exception_handler>:
9d008260:	3c020000 	lui	v0,0x0
9d008264:	24420000 	addiu	v0,v0,0
9d008268:	10400005 	beqz	v0,9d008280 <_general_exception_handler+0x20>
9d00826c:	3c020000 	lui	v0,0x0
9d008270:	24420000 	addiu	v0,v0,0
9d008274:	10400003 	beqz	v0,9d008284 <_general_exception_handler+0x24>
9d008278:	3c029d01 	lui	v0,0x9d01
9d00827c:	7000003f 	sdbbp
9d008280:	3c029d01 	lui	v0,0x9d01
9d008284:	244282f0 	addiu	v0,v0,-32016
9d008288:	10400005 	beqz	v0,9d0082a0 <_general_exception_handler+0x40>
9d00828c:	00000000 	nop
9d008290:	27bdffe8 	addiu	sp,sp,-24
9d008294:	afbf0014 	sw	ra,20(sp)
9d008298:	0040f809 	jalr	v0
9d00829c:	00000000 	nop
9d0082a0:	1000ffff 	b	9d0082a0 <_general_exception_handler+0x40>
9d0082a4:	00000000 	nop

Disassembly of section .vector_default:

9d0082a8 <_DefaultInterrupt>:
9d0082a8:	3c020000 	lui	v0,0x0
9d0082ac:	24420000 	addiu	v0,v0,0
9d0082b0:	10400007 	beqz	v0,9d0082d0 <_DefaultInterrupt+0x28>
9d0082b4:	3c020000 	lui	v0,0x0
9d0082b8:	24420000 	addiu	v0,v0,0
9d0082bc:	50400005 	beqzl	v0,9d0082d4 <_DefaultInterrupt+0x2c>
9d0082c0:	3c029d01 	lui	v0,0x9d01
9d0082c4:	7000003f 	sdbbp
9d0082c8:	03e00008 	jr	ra
9d0082cc:	00000000 	nop
9d0082d0:	3c029d01 	lui	v0,0x9d01
9d0082d4:	244282f0 	addiu	v0,v0,-32016
9d0082d8:	10400003 	beqz	v0,9d0082e8 <_DefaultInterrupt+0x40>
9d0082dc:	00000000 	nop
9d0082e0:	0040f809 	jalr	v0
9d0082e4:	00000000 	nop
9d0082e8:	03e00008 	jr	ra
9d0082ec:	00000000 	nop

Disassembly of section .text:

9d0082f0 <__pic32_software_reset>:
9d0082f0:	41606000 	di
9d0082f4:	000000c0 	ehb
9d0082f8:	3c03aa99 	lui	v1,0xaa99
9d0082fc:	3c02bf81 	lui	v0,0xbf81
9d008300:	24636655 	addiu	v1,v1,26197
9d008304:	ac40f230 	sw	zero,-3536(v0)
9d008308:	ac43f230 	sw	v1,-3536(v0)
9d00830c:	3c035566 	lui	v1,0x5566
9d008310:	346399aa 	ori	v1,v1,0x99aa
9d008314:	ac43f230 	sw	v1,-3536(v0)
9d008318:	3c02bf81 	lui	v0,0xbf81
9d00831c:	24030001 	li	v1,1
9d008320:	ac43f618 	sw	v1,-2536(v0)
9d008324:	3c02bf81 	lui	v0,0xbf81
9d008328:	8c42f610 	lw	v0,-2544(v0)
9d00832c:	0b4020be 	j	9d0082f8 <__pic32_software_reset+0x8>
9d008330:	00000000 	nop

9d008334 <__floatunsidf>:
9d008334:	27bdffe8 	addiu	sp,sp,-24
9d008338:	afb00010 	sw	s0,16(sp)
9d00833c:	afbf0014 	sw	ra,20(sp)
9d008340:	0f402038 	jal	9d0080e0 <__floatsidf>
9d008344:	00808025 	move	s0,a0
9d008348:	06010006 	bgez	s0,9d008364 <__floatunsidf+0x30>
9d00834c:	00602825 	move	a1,v1
9d008350:	3c049d00 	lui	a0,0x9d00
9d008354:	8c867498 	lw	a2,29848(a0)
9d008358:	8c87749c 	lw	a3,29852(a0)
9d00835c:	0f401d2a 	jal	9d0074a8 <__adddf3>
9d008360:	00402025 	move	a0,v0
9d008364:	8fbf0014 	lw	ra,20(sp)
9d008368:	8fb00010 	lw	s0,16(sp)
9d00836c:	03e00008 	jr	ra
9d008370:	27bd0018 	addiu	sp,sp,24

Disassembly of section .text.dinit.startup:

9d008374 <__pic32_data_init>:
9d008374:	03e01825 	move	v1,ra
9d008378:	3c089d01 	lui	t0,0x9d01
9d00837c:	25088060 	addiu	t0,t0,-32672
9d008380:	0100f809 	jalr	t0
9d008384:	00000000 	nop
9d008388:	0060f825 	move	ra,v1
9d00838c:	03e00008 	jr	ra
9d008390:	00000000 	nop

Disassembly of section .text:

9d0083b0 <_nmi_handler>:
9d0083b0:	401a6000 	mfc0	k0,c0_status
9d0083b4:	3c1bffbf 	lui	k1,0xffbf
9d0083b8:	377bffff 	ori	k1,k1,0xffff
9d0083bc:	035bd024 	and	k0,k0,k1
9d0083c0:	409a6000 	mtc0	k0,c0_status
9d0083c4:	42000018 	eret

Disassembly of section .dinit:

9d0083c8 <.dinit>:
9d0083c8:	00000000 	nop
9d0083cc:	44444444 	0x44444444
9d0083d0:	44444444 	0x44444444
9d0083d4:	44444444 	0x44444444

Disassembly of section .text._on_reset:

9d0083d8 <_on_reset>:
9d0083d8:	03e00008 	jr	ra
9d0083dc:	00000000 	nop

Disassembly of section .text._on_bootstrap:

9d0083e0 <_on_bootstrap>:
9d0083e0:	03e00008 	jr	ra
9d0083e4:	00000000 	nop
