
out.elf:     file format elf32-tradlittlemips


Disassembly of section .reset:

bd007000 <_reset>:
bd007000:	0f401c02 	jal	bd007008 <_startup>
bd007004:	00000000 	nop

bd007008 <_startup>:
bd007008:	401a6000 	mfc0	k0,c0_status
bd00700c:	7f5a04c0 	ext	k0,k0,0x13,0x1
bd007010:	13400005 	beqz	k0,bd007028 <_no_nmi>
bd007014:	00000000 	nop
bd007018:	3c1a9d01 	lui	k0,0x9d01
bd00701c:	275a90c0 	addiu	k0,k0,-28480
bd007020:	03400008 	jr	k0
bd007024:	00000000 	nop

bd007028 <_no_nmi>:
bd007028:	3c1da001 	lui	sp,0xa001
bd00702c:	27bdfff8 	addiu	sp,sp,-8
bd007030:	3c1ca000 	lui	gp,0xa000
bd007034:	279c7ff0 	addiu	gp,gp,32752
bd007038:	3c089d01 	lui	t0,0x9d01
bd00703c:	250890d8 	addiu	t0,t0,-28456
bd007040:	0100f809 	jalr	t0
bd007044:	00000000 	nop

bd007048 <_start_bss_init>:
bd007048:	3c08a000 	lui	t0,0xa000
bd00704c:	25080000 	addiu	t0,t0,0
bd007050:	3c09a000 	lui	t1,0xa000
bd007054:	25290000 	addiu	t1,t1,0
bd007058:	10000003 	b	bd007068 <_bss_check>
bd00705c:	00000000 	nop

bd007060 <_bss_init>:
bd007060:	ad000000 	sw	zero,0(t0)
bd007064:	25080004 	addiu	t0,t0,4

bd007068 <_bss_check>:
bd007068:	0109082b 	sltu	at,t0,t1
bd00706c:	1420fffc 	bnez	at,bd007060 <_bss_init>
bd007070:	00000000 	nop
bd007074:	3c089d01 	lui	t0,0x9d01
bd007078:	25089088 	addiu	t0,t0,-28536
bd00707c:	0100f809 	jalr	t0
bd007080:	00000000 	nop
bd007084:	3c090000 	lui	t1,0x0
bd007088:	25290000 	addiu	t1,t1,0
bd00708c:	11200010 	beqz	t1,bd0070d0 <_ramfunc_done>
bd007090:	00000000 	nop
bd007094:	3c090001 	lui	t1,0x1
bd007098:	25290000 	addiu	t1,t1,0
bd00709c:	3c0abf88 	lui	t2,0xbf88
bd0070a0:	254a2010 	addiu	t2,t2,8208
bd0070a4:	ad490000 	sw	t1,0(t2)
bd0070a8:	3c090001 	lui	t1,0x1
bd0070ac:	25290000 	addiu	t1,t1,0
bd0070b0:	3c0abf88 	lui	t2,0xbf88
bd0070b4:	254a2020 	addiu	t2,t2,8224
bd0070b8:	ad490000 	sw	t1,0(t2)
bd0070bc:	3c090001 	lui	t1,0x1
bd0070c0:	25290000 	addiu	t1,t1,0
bd0070c4:	3c0abf88 	lui	t2,0xbf88
bd0070c8:	254a2030 	addiu	t2,t2,8240
bd0070cc:	ad490000 	sw	t1,0(t2)

bd0070d0 <_ramfunc_done>:
bd0070d0:	40804800 	mtc0	zero,c0_count
bd0070d4:	240affff 	li	t2,-1
bd0070d8:	408a5800 	mtc0	t2,c0_compare
bd0070dc:	3c080040 	lui	t0,0x40
bd0070e0:	400a6000 	mfc0	t2,c0_status
bd0070e4:	010a5025 	or	t2,t0,t2
bd0070e8:	408a6000 	mtc0	t2,c0_status
bd0070ec:	3c099d00 	lui	t1,0x9d00
bd0070f0:	25296000 	addiu	t1,t1,24576
bd0070f4:	000000c0 	ehb
bd0070f8:	40897801 	mtc0	t1,c0_ebase
bd0070fc:	3c090000 	lui	t1,0x0
bd007100:	25290001 	addiu	t1,t1,1
bd007104:	240a0000 	li	t2,0
bd007108:	7d2a4944 	ins	t2,t1,0x5,0x5
bd00710c:	408a6001 	mtc0	t2,c0_intctl
bd007110:	3c090080 	lui	t1,0x80
bd007114:	40896800 	mtc0	t1,c0_cause
bd007118:	40088000 	mfc0	t0,c0_config
bd00711c:	7d090580 	ext	t1,t0,0x16,0x1
bd007120:	00094c40 	sll	t1,t1,0x11
bd007124:	40086000 	mfc0	t0,c0_status
bd007128:	3c010058 	lui	at,0x58
bd00712c:	01014024 	and	t0,t0,at
bd007130:	01284025 	or	t0,t1,t0
bd007134:	40886000 	mtc0	t0,c0_status
bd007138:	000000c0 	ehb
bd00713c:	3c089d01 	lui	t0,0x9d01
bd007140:	250890e0 	addiu	t0,t0,-28448
bd007144:	0100f809 	jalr	t0
bd007148:	00000000 	nop
bd00714c:	40086000 	mfc0	t0,c0_status
bd007150:	3c01ffbf 	lui	at,0xffbf
bd007154:	3421ffff 	ori	at,at,0xffff
bd007158:	01014024 	and	t0,t0,at
bd00715c:	40886000 	mtc0	t0,c0_status
bd007160:	30840000 	andi	a0,a0,0x0
bd007164:	30a50000 	andi	a1,a1,0x0
bd007168:	3c089d01 	lui	t0,0x9d01
bd00716c:	25088f18 	addiu	t0,t0,-28904
bd007170:	01000008 	jr	t0
bd007174:	00000000 	nop

Disassembly of section .bev_excpt:

bfc07380 <_bev_exception>:
bfc07380:	3c1a9d01 	lui	k0,0x9d01
bfc07384:	275a8f6c 	addiu	k0,k0,-28820
bfc07388:	03400008 	jr	k0
bfc0738c:	00000000 	nop

Disassembly of section .app_excpt:

9d006180 <_gen_exception>:
9d006180:	3c1a9d01 	lui	k0,0x9d01
9d006184:	275a8b14 	addiu	k0,k0,-29932
9d006188:	03400008 	jr	k0
9d00618c:	00000000 	nop

Disassembly of section .vector_0:

9d006200 <__vector_dispatch_0>:
9d006200:	0b4023ff 	j	9d008ffc <_DefaultInterrupt>
9d006204:	00000000 	nop

Disassembly of section .vector_1:

9d006220 <__vector_dispatch_1>:
9d006220:	0b4023ff 	j	9d008ffc <_DefaultInterrupt>
9d006224:	00000000 	nop

Disassembly of section .vector_2:

9d006240 <__vector_dispatch_2>:
9d006240:	0b4023ff 	j	9d008ffc <_DefaultInterrupt>
9d006244:	00000000 	nop

Disassembly of section .vector_3:

9d006260 <__vector_dispatch_3>:
9d006260:	0b4023ff 	j	9d008ffc <_DefaultInterrupt>
9d006264:	00000000 	nop

Disassembly of section .vector_4:

9d006280 <__vector_dispatch_4>:
9d006280:	0b4023ff 	j	9d008ffc <_DefaultInterrupt>
9d006284:	00000000 	nop

Disassembly of section .vector_5:

9d0062a0 <__vector_dispatch_5>:
9d0062a0:	0b4023ff 	j	9d008ffc <_DefaultInterrupt>
9d0062a4:	00000000 	nop

Disassembly of section .vector_6:

9d0062c0 <__vector_dispatch_6>:
9d0062c0:	0b4023ff 	j	9d008ffc <_DefaultInterrupt>
9d0062c4:	00000000 	nop

Disassembly of section .vector_7:

9d0062e0 <__vector_dispatch_7>:
9d0062e0:	0b4023ff 	j	9d008ffc <_DefaultInterrupt>
9d0062e4:	00000000 	nop

Disassembly of section .vector_8:

9d006300 <__vector_dispatch_8>:
9d006300:	0b4023ff 	j	9d008ffc <_DefaultInterrupt>
9d006304:	00000000 	nop

Disassembly of section .vector_9:

9d006320 <__vector_dispatch_9>:
9d006320:	0b4023ff 	j	9d008ffc <_DefaultInterrupt>
9d006324:	00000000 	nop

Disassembly of section .vector_10:

9d006340 <__vector_dispatch_10>:
9d006340:	0b4023ff 	j	9d008ffc <_DefaultInterrupt>
9d006344:	00000000 	nop

Disassembly of section .vector_11:

9d006360 <__vector_dispatch_11>:
9d006360:	0b4023ff 	j	9d008ffc <_DefaultInterrupt>
9d006364:	00000000 	nop

Disassembly of section .vector_12:

9d006380 <__vector_dispatch_12>:
9d006380:	0b4023ff 	j	9d008ffc <_DefaultInterrupt>
9d006384:	00000000 	nop

Disassembly of section .vector_13:

9d0063a0 <__vector_dispatch_13>:
9d0063a0:	0b4023ff 	j	9d008ffc <_DefaultInterrupt>
9d0063a4:	00000000 	nop

Disassembly of section .vector_14:

9d0063c0 <__vector_dispatch_14>:
9d0063c0:	0b4023ff 	j	9d008ffc <_DefaultInterrupt>
9d0063c4:	00000000 	nop

Disassembly of section .vector_15:

9d0063e0 <__vector_dispatch_15>:
9d0063e0:	0b4023ff 	j	9d008ffc <_DefaultInterrupt>
9d0063e4:	00000000 	nop

Disassembly of section .vector_16:

9d006400 <__vector_dispatch_16>:
9d006400:	0b4023ff 	j	9d008ffc <_DefaultInterrupt>
9d006404:	00000000 	nop

Disassembly of section .vector_17:

9d006420 <__vector_dispatch_17>:
9d006420:	0b4023ff 	j	9d008ffc <_DefaultInterrupt>
9d006424:	00000000 	nop

Disassembly of section .vector_18:

9d006440 <__vector_dispatch_18>:
9d006440:	0b4023ff 	j	9d008ffc <_DefaultInterrupt>
9d006444:	00000000 	nop

Disassembly of section .vector_19:

9d006460 <__vector_dispatch_19>:
9d006460:	0b4023ff 	j	9d008ffc <_DefaultInterrupt>
9d006464:	00000000 	nop

Disassembly of section .vector_20:

9d006480 <__vector_dispatch_20>:
9d006480:	0b4023ff 	j	9d008ffc <_DefaultInterrupt>
9d006484:	00000000 	nop

Disassembly of section .vector_21:

9d0064a0 <__vector_dispatch_21>:
9d0064a0:	0b4023ff 	j	9d008ffc <_DefaultInterrupt>
9d0064a4:	00000000 	nop

Disassembly of section .vector_22:

9d0064c0 <__vector_dispatch_22>:
9d0064c0:	0b4023ff 	j	9d008ffc <_DefaultInterrupt>
9d0064c4:	00000000 	nop

Disassembly of section .vector_23:

9d0064e0 <__vector_dispatch_23>:
9d0064e0:	0b4023ff 	j	9d008ffc <_DefaultInterrupt>
9d0064e4:	00000000 	nop

Disassembly of section .vector_24:

9d006500 <__vector_dispatch_24>:
9d006500:	0b4023ff 	j	9d008ffc <_DefaultInterrupt>
9d006504:	00000000 	nop

Disassembly of section .vector_25:

9d006520 <__vector_dispatch_25>:
9d006520:	0b4023ff 	j	9d008ffc <_DefaultInterrupt>
9d006524:	00000000 	nop

Disassembly of section .vector_26:

9d006540 <__vector_dispatch_26>:
9d006540:	0b4023ff 	j	9d008ffc <_DefaultInterrupt>
9d006544:	00000000 	nop

Disassembly of section .vector_27:

9d006560 <__vector_dispatch_27>:
9d006560:	0b4023ff 	j	9d008ffc <_DefaultInterrupt>
9d006564:	00000000 	nop

Disassembly of section .vector_28:

9d006580 <__vector_dispatch_28>:
9d006580:	0b4023ff 	j	9d008ffc <_DefaultInterrupt>
9d006584:	00000000 	nop

Disassembly of section .vector_29:

9d0065a0 <__vector_dispatch_29>:
9d0065a0:	0b4023ff 	j	9d008ffc <_DefaultInterrupt>
9d0065a4:	00000000 	nop

Disassembly of section .vector_30:

9d0065c0 <__vector_dispatch_30>:
9d0065c0:	0b4023ff 	j	9d008ffc <_DefaultInterrupt>
9d0065c4:	00000000 	nop

Disassembly of section .vector_31:

9d0065e0 <__vector_dispatch_31>:
9d0065e0:	0b4023ff 	j	9d008ffc <_DefaultInterrupt>
9d0065e4:	00000000 	nop

Disassembly of section .vector_32:

9d006600 <__vector_dispatch_32>:
9d006600:	0b4023ff 	j	9d008ffc <_DefaultInterrupt>
9d006604:	00000000 	nop

Disassembly of section .vector_33:

9d006620 <__vector_dispatch_33>:
9d006620:	0b4023ff 	j	9d008ffc <_DefaultInterrupt>
9d006624:	00000000 	nop

Disassembly of section .vector_34:

9d006640 <__vector_dispatch_34>:
9d006640:	0b4023ff 	j	9d008ffc <_DefaultInterrupt>
9d006644:	00000000 	nop

Disassembly of section .vector_35:

9d006660 <__vector_dispatch_35>:
9d006660:	0b4023ff 	j	9d008ffc <_DefaultInterrupt>
9d006664:	00000000 	nop

Disassembly of section .vector_36:

9d006680 <__vector_dispatch_36>:
9d006680:	0b4023ff 	j	9d008ffc <_DefaultInterrupt>
9d006684:	00000000 	nop

Disassembly of section .vector_37:

9d0066a0 <__vector_dispatch_37>:
9d0066a0:	0b4023ff 	j	9d008ffc <_DefaultInterrupt>
9d0066a4:	00000000 	nop

Disassembly of section .vector_38:

9d0066c0 <__vector_dispatch_38>:
9d0066c0:	0b4023ff 	j	9d008ffc <_DefaultInterrupt>
9d0066c4:	00000000 	nop

Disassembly of section .vector_39:

9d0066e0 <__vector_dispatch_39>:
9d0066e0:	0b4023ff 	j	9d008ffc <_DefaultInterrupt>
9d0066e4:	00000000 	nop

Disassembly of section .vector_40:

9d006700 <__vector_dispatch_40>:
9d006700:	0b4023ff 	j	9d008ffc <_DefaultInterrupt>
9d006704:	00000000 	nop

Disassembly of section .vector_41:

9d006720 <__vector_dispatch_41>:
9d006720:	0b4023ff 	j	9d008ffc <_DefaultInterrupt>
9d006724:	00000000 	nop

Disassembly of section .vector_42:

9d006740 <__vector_dispatch_42>:
9d006740:	0b4023ff 	j	9d008ffc <_DefaultInterrupt>
9d006744:	00000000 	nop

Disassembly of section .vector_43:

9d006760 <__vector_dispatch_43>:
9d006760:	0b4023ff 	j	9d008ffc <_DefaultInterrupt>
9d006764:	00000000 	nop

Disassembly of section .rodata:

9d007490 <.rodata>:
9d007490:	f01b866e 	0xf01b866e
9d007494:	404921f9 	0x404921f9
9d007498:	00000000 	nop
9d00749c:	40790000 	0x40790000
9d0074a0:	00000000 	nop
9d0074a4:	407ff000 	0x407ff000

Disassembly of section ._debug_exception:

bfc00480 <__DbgExecReturn>:
bfc00480:	409bf800 	mtc0	k1,c0_desave
bfc00484:	000000c0 	ehb
bfc00488:	3c1b9d01 	lui	k1,0x9d01
bfc0048c:	277b9044 	addiu	k1,k1,-28604
bfc00490:	13600002 	beqz	k1,bfc0049c <__DbgExecReturn+0x1c>
bfc00494:	00000000 	nop
bfc00498:	409bc000 	mtc0	k1,c0_depc
bfc0049c:	401bf800 	mfc0	k1,c0_desave
bfc004a0:	000000c0 	ehb
bfc004a4:	4200001f 	deret
bfc004a8:	00000000 	nop

Disassembly of section .text.dp32mul:

9d0074a8 <__divdf3>:
9d0074a8:	00055040 000a5542 00054ac0 00047d42     @P..BU...J..B}..
9d0074b8:	012f4825 000442c0 3c0e8000 012e4825     %H/..B.....<%H..
9d0074c8:	00076840 000d6d42 000762c0 00067d42     @h..Bm...b..B}..
9d0074d8:	018f6025 00065ac0 018e6025 00a72826     %`...Z..%`..&(..
9d0074e8:	00ae2824 254fffff 2de107fe 102000cb     $(....O%...-.. .
9d0074f8:	00000000                                ....

9d0074fc <Dlab1>:
9d0074fc:	25afffff 	addiu	t7,t5,-1
9d007500:	2de107fe 	sltiu	at,t7,2046
9d007504:	102000f4 	beqz	at,9d0078d8 <DspecB>
9d007508:	00000000 	nop

9d00750c <Dlab2>:
9d00750c:	014d5023 	subu	t2,t2,t5
9d007510:	254a03ff 	addiu	t2,t2,1023
9d007514:	00084042 	srl	t0,t0,0x1
9d007518:	00097fc0 	sll	t7,t1,0x1f
9d00751c:	010f4025 	or	t0,t0,t7
9d007520:	00094842 	srl	t1,t1,0x1
9d007524:	000c3c02 	srl	a3,t4,0x10
9d007528:	00e001f4 	teq	a3,zero,0x7
9d00752c:	0127001b 	divu	zero,t1,a3
9d007530:	00007012 	mflo	t6
9d007534:	00004810 	mfhi	t1
9d007538:	3186ffff 	andi	a2,t4,0xffff
9d00753c:	00ce0019 	multu	a2,t6
9d007540:	00002012 	mflo	a0
9d007544:	00094c00 	sll	t1,t1,0x10
9d007548:	00087c02 	srl	t7,t0,0x10
9d00754c:	012f4825 	or	t1,t1,t7
9d007550:	0124782b 	sltu	t7,t1,a0
9d007554:	11e00006 	beqz	t7,9d007570 <i20>
9d007558:	01244823 	subu	t1,t1,a0

9d00755c <b21>:
9d00755c:	25ceffff 	addiu	t6,t6,-1
9d007560:	012c4821 	addu	t1,t1,t4
9d007564:	012c082b 	sltu	at,t1,t4
9d007568:	1020fffc 	beqz	at,9d00755c <b21>
9d00756c:	00000000 	nop

9d007570 <i20>:
9d007570:	00e001f4 	teq	a3,zero,0x7
9d007574:	0127001b 	divu	zero,t1,a3
9d007578:	00003812 	mflo	a3
9d00757c:	00004810 	mfhi	t1
9d007580:	00c70019 	multu	a2,a3
9d007584:	00002012 	mflo	a0
9d007588:	00094c00 	sll	t1,t1,0x10
9d00758c:	310fffff 	andi	t7,t0,0xffff
9d007590:	012f4825 	or	t1,t1,t7
9d007594:	0124782b 	sltu	t7,t1,a0
9d007598:	11e00006 	beqz	t7,9d0075b4 <i22>
9d00759c:	01244823 	subu	t1,t1,a0

9d0075a0 <b23>:
9d0075a0:	24e7ffff 	addiu	a3,a3,-1
9d0075a4:	012c4821 	addu	t1,t1,t4
9d0075a8:	012c082b 	sltu	at,t1,t4
9d0075ac:	1020fffc 	beqz	at,9d0075a0 <b23>
9d0075b0:	00000000 	nop

9d0075b4 <i22>:
9d0075b4:	000e7400 	sll	t6,t6,0x10
9d0075b8:	01c77021 	addu	t6,t6,a3
9d0075bc:	01cb0019 	multu	t6,t3
9d0075c0:	00003812 	mflo	a3
9d0075c4:	00002010 	mfhi	a0
9d0075c8:	24080000 	li	t0,0
9d0075cc:	0107782b 	sltu	t7,t0,a3
9d0075d0:	01074023 	subu	t0,t0,a3
9d0075d4:	012f102b 	sltu	v0,t1,t7
9d0075d8:	012f4823 	subu	t1,t1,t7
9d0075dc:	0124782b 	sltu	t7,t1,a0
9d0075e0:	01e27825 	or	t7,t7,v0
9d0075e4:	11e0000b 	beqz	t7,9d007614 <i24>
9d0075e8:	01244823 	subu	t1,t1,a0

9d0075ec <Dlab3>:
9d0075ec:	25ceffff 	addiu	t6,t6,-1
9d0075f0:	010b4021 	addu	t0,t0,t3
9d0075f4:	010b782b 	sltu	t7,t0,t3
9d0075f8:	012c4821 	addu	t1,t1,t4
9d0075fc:	012f4821 	addu	t1,t1,t7
9d007600:	112c0002 	beq	t1,t4,9d00760c <L31>
9d007604:	00000000 	nop
9d007608:	012c782b 	sltu	t7,t1,t4

9d00760c <L31>:
9d00760c:	11e0fff7 	beqz	t7,9d0075ec <Dlab3>
9d007610:	00000000 	nop

9d007614 <i24>:
9d007614:	152c0006 	bne	t1,t4,9d007630 <i25>
9d007618:	00000000 	nop
9d00761c:	000b2025 	or	a0,zero,t3
9d007620:	00084825 	or	t1,zero,t0
9d007624:	240d0000 	li	t5,0
9d007628:	1000002a 	b	9d0076d4 <e25>
9d00762c:	000d3825 	or	a3,zero,t5

9d007630 <i25>:
9d007630:	000c3c02 	srl	a3,t4,0x10
9d007634:	00e001f4 	teq	a3,zero,0x7
9d007638:	0127001b 	divu	zero,t1,a3
9d00763c:	00006812 	mflo	t5
9d007640:	00004810 	mfhi	t1
9d007644:	3186ffff 	andi	a2,t4,0xffff
9d007648:	00cd0019 	multu	a2,t5
9d00764c:	00002012 	mflo	a0
9d007650:	00094c00 	sll	t1,t1,0x10
9d007654:	00087c02 	srl	t7,t0,0x10
9d007658:	012f4825 	or	t1,t1,t7
9d00765c:	0124782b 	sltu	t7,t1,a0
9d007660:	11e00006 	beqz	t7,9d00767c <i26>
9d007664:	01244823 	subu	t1,t1,a0

9d007668 <b27>:
9d007668:	25adffff 	addiu	t5,t5,-1
9d00766c:	012c4821 	addu	t1,t1,t4
9d007670:	012c082b 	sltu	at,t1,t4
9d007674:	1020fffc 	beqz	at,9d007668 <b27>
9d007678:	00000000 	nop

9d00767c <i26>:
9d00767c:	00e001f4 	teq	a3,zero,0x7
9d007680:	0127001b 	divu	zero,t1,a3
9d007684:	00003812 	mflo	a3
9d007688:	00004810 	mfhi	t1
9d00768c:	00c70019 	multu	a2,a3
9d007690:	00002012 	mflo	a0
9d007694:	00094c00 	sll	t1,t1,0x10
9d007698:	310fffff 	andi	t7,t0,0xffff
9d00769c:	012f4825 	or	t1,t1,t7
9d0076a0:	0124782b 	sltu	t7,t1,a0
9d0076a4:	11e00006 	beqz	t7,9d0076c0 <i28>
9d0076a8:	01244823 	subu	t1,t1,a0

9d0076ac <b29>:
9d0076ac:	24e7ffff 	addiu	a3,a3,-1
9d0076b0:	012c4821 	addu	t1,t1,t4
9d0076b4:	012c082b 	sltu	at,t1,t4
9d0076b8:	1020fffc 	beqz	at,9d0076ac <b29>
9d0076bc:	00000000 	nop

9d0076c0 <i28>:
9d0076c0:	000d6c00 	sll	t5,t5,0x10
9d0076c4:	01a76821 	addu	t5,t5,a3
9d0076c8:	01ab0019 	multu	t5,t3
9d0076cc:	00003812 	mflo	a3
9d0076d0:	00002010 	mfhi	a0

9d0076d4 <e25>:
9d0076d4:	24080000 	li	t0,0
9d0076d8:	0107782b 	sltu	t7,t0,a3
9d0076dc:	01074023 	subu	t0,t0,a3
9d0076e0:	012f102b 	sltu	v0,t1,t7
9d0076e4:	012f4823 	subu	t1,t1,t7
9d0076e8:	0124782b 	sltu	t7,t1,a0
9d0076ec:	01e27825 	or	t7,t7,v0
9d0076f0:	11e0000b 	beqz	t7,9d007720 <i30>
9d0076f4:	01244823 	subu	t1,t1,a0

9d0076f8 <Dlab4>:
9d0076f8:	25adffff 	addiu	t5,t5,-1
9d0076fc:	010b4021 	addu	t0,t0,t3
9d007700:	010b782b 	sltu	t7,t0,t3
9d007704:	012c4821 	addu	t1,t1,t4
9d007708:	012f4821 	addu	t1,t1,t7
9d00770c:	112c0002 	beq	t1,t4,9d007718 <L32>
9d007710:	00000000 	nop
9d007714:	012c782b 	sltu	t7,t1,t4

9d007718 <L32>:
9d007718:	11e0fff7 	beqz	t7,9d0076f8 <Dlab4>
9d00771c:	00000000 	nop

9d007720 <i30>:
9d007720:	05c00006 	bltz	t6,9d00773c <i31>
9d007724:	00000000 	nop
9d007728:	01a0782a 	slt	t7,t5,zero
9d00772c:	01ad6821 	addu	t5,t5,t5
9d007730:	01ce7021 	addu	t6,t6,t6
9d007734:	01cf7021 	addu	t6,t6,t7
9d007738:	254affff 	addiu	t2,t2,-1

9d00773c <i31>:
9d00773c:	01287825 	or	t7,t1,t0
9d007740:	11e00002 	beqz	t7,9d00774c <i32>
9d007744:	00000000 	nop
9d007748:	35ad0001 	ori	t5,t5,0x1

9d00774c <i32>:
9d00774c:	000e4825 	or	t1,zero,t6
9d007750:	000d4025 	or	t0,zero,t5
9d007754:	254fffff 	addiu	t7,t2,-1
9d007758:	2de107fe 	sltiu	at,t7,2046
9d00775c:	10200015 	beqz	at,9d0077b4 <Doveund>
9d007760:	00000000 	nop
9d007764:	25080400 	addiu	t0,t0,1024
9d007768:	2d0f0400 	sltiu	t7,t0,1024
9d00776c:	012f4821 	addu	t1,t1,t7
9d007770:	012f782b 	sltu	t7,t1,t7
9d007774:	014f5021 	addu	t2,t2,t7

9d007778 <Dlab8>:
9d007778:	00087ac2 	srl	t7,t0,0xb
9d00777c:	31ef0001 	andi	t7,t7,0x1
9d007780:	010f4023 	subu	t0,t0,t7
9d007784:	000822c2 	srl	a0,t0,0xb
9d007788:	00097d40 	sll	t7,t1,0x15
9d00778c:	008f2025 	or	a0,a0,t7
9d007790:	00097840 	sll	t7,t1,0x1
9d007794:	000f7b02 	srl	t7,t7,0xc
9d007798:	00af2825 	or	a1,a1,t7
9d00779c:	000a7d00 	sll	t7,t2,0x14
9d0077a0:	00af2825 	or	a1,a1,t7

9d0077a4 <Dret>:
9d0077a4:	00041025 	or	v0,zero,a0
9d0077a8:	00051825 	or	v1,zero,a1

9d0077ac <D999>:
9d0077ac:	03e00008 	jr	ra
9d0077b0:	00000000 	nop

9d0077b4 <Doveund>:
9d0077b4:	1d400044 	bgtz	t2,9d0078c8 <Dinf>
9d0077b8:	00000000 	nop
9d0077bc:	240e0001 	li	t6,1
9d0077c0:	01ca7023 	subu	t6,t6,t2

9d0077c4 <L33>:
9d0077c4:	2dc10020 	sltiu	at,t6,32
9d0077c8:	14200007 	bnez	at,9d0077e8 <L34>
9d0077cc:	00000000 	nop
9d0077d0:	21ceffe0 	addi	t6,t6,-32
9d0077d4:	0008202b 	sltu	a0,zero,t0
9d0077d8:	1009000d 	beq	zero,t1,9d007810 <L35>
9d0077dc:	01244025 	or	t0,t1,a0
9d0077e0:	1000fff8 	b	9d0077c4 <L33>
9d0077e4:	34090000 	li	t1,0x0

9d0077e8 <L34>:
9d0077e8:	11c00009 	beqz	t6,9d007810 <L35>
9d0077ec:	00000000 	nop
9d0077f0:	000e3022 	neg	a2,t6
9d0077f4:	00c82004 	sllv	a0,t0,a2
9d0077f8:	00c93004 	sllv	a2,t1,a2
9d0077fc:	01c84006 	srlv	t0,t0,t6
9d007800:	01c94806 	srlv	t1,t1,t6
9d007804:	10800002 	beqz	a0,9d007810 <L35>
9d007808:	00c84025 	or	t0,a2,t0
9d00780c:	35080002 	ori	t0,t0,0x2

9d007810 <L35>:
9d007810:	25080400 	addiu	t0,t0,1024
9d007814:	2d0f0400 	sltiu	t7,t0,1024
9d007818:	012f4821 	addu	t1,t1,t7
9d00781c:	1000ffd6 	b	9d007778 <Dlab8>
9d007820:	000957c2 	srl	t2,t1,0x1f

9d007824 <DspecA>:
9d007824:	0100782a 	slt	t7,t0,zero
9d007828:	01084021 	addu	t0,t0,t0
9d00782c:	01294821 	addu	t1,t1,t1
9d007830:	15400017 	bnez	t2,9d007890 <i33>
9d007834:	012f4821 	addu	t1,t1,t7
9d007838:	01287825 	or	t7,t1,t0
9d00783c:	11e00014 	beqz	t7,9d007890 <i33>
9d007840:	00000000 	nop
9d007844:	15200008 	bnez	t1,9d007868 <L36>
9d007848:	00000000 	nop
9d00784c:	15000003 	bnez	t0,9d00785c <L37>
9d007850:	00000000 	nop
9d007854:	1000ff29 	b	9d0074fc <Dlab1>
9d007858:	240a0000 	li	t2,0

9d00785c <L37>:
9d00785c:	01004825 	move	t1,t0
9d007860:	24080000 	li	t0,0
9d007864:	254affe0 	addiu	t2,t2,-32

9d007868 <L36>:
9d007868:	712e7020 	clz	t6,t1
9d00786c:	11c0ff23 	beqz	t6,9d0074fc <Dlab1>
9d007870:	00000000 	nop
9d007874:	014e5023 	subu	t2,t2,t6
9d007878:	000e3022 	neg	a2,t6
9d00787c:	00c83006 	srlv	a2,t0,a2
9d007880:	01c84004 	sllv	t0,t0,t6
9d007884:	01c94804 	sllv	t1,t1,t6
9d007888:	1000ff1c 	b	9d0074fc <Dlab1>
9d00788c:	01264825 	or	t1,t1,a2

9d007890 <i33>:
9d007890:	154d0005 	bne	t2,t5,9d0078a8 <i35>
9d007894:	00000000 	nop
9d007898:	000c7840 	sll	t7,t4,0x1
9d00789c:	01eb7825 	or	t7,t7,t3
9d0078a0:	11e0002b 	beqz	t7,9d007950 <Dnan>
9d0078a4:	00000000 	nop

9d0078a8 <i35>:
9d0078a8:	240107ff 	li	at,2047
9d0078ac:	11a1000a 	beq	t5,at,9d0078d8 <DspecB>
9d0078b0:	00000000 	nop
9d0078b4:	1140ffbb 	beqz	t2,9d0077a4 <Dret>
9d0078b8:	00000000 	nop
9d0078bc:	01287825 	or	t7,t1,t0
9d0078c0:	15e00023 	bnez	t7,9d007950 <Dnan>
9d0078c4:	00000000 	nop

9d0078c8 <Dinf>:
9d0078c8:	3c017ff0 	lui	at,0x7ff0
9d0078cc:	00a12825 	or	a1,a1,at
9d0078d0:	1000ffb4 	b	9d0077a4 <Dret>
9d0078d4:	24040000 	li	a0,0

9d0078d8 <DspecB>:
9d0078d8:	0160782a 	slt	t7,t3,zero
9d0078dc:	016b5821 	addu	t3,t3,t3
9d0078e0:	018c6021 	addu	t4,t4,t4
9d0078e4:	15a00017 	bnez	t5,9d007944 <i36>
9d0078e8:	018f6021 	addu	t4,t4,t7
9d0078ec:	018b7825 	or	t7,t4,t3
9d0078f0:	11e0fff5 	beqz	t7,9d0078c8 <Dinf>
9d0078f4:	00000000 	nop
9d0078f8:	15800008 	bnez	t4,9d00791c <L39>
9d0078fc:	00000000 	nop
9d007900:	15600003 	bnez	t3,9d007910 <L40>
9d007904:	00000000 	nop
9d007908:	1000ff00 	b	9d00750c <Dlab2>
9d00790c:	240d0000 	li	t5,0

9d007910 <L40>:
9d007910:	01606025 	move	t4,t3
9d007914:	240b0000 	li	t3,0
9d007918:	25adffe0 	addiu	t5,t5,-32

9d00791c <L39>:
9d00791c:	718e7020 	clz	t6,t4
9d007920:	11c0fefa 	beqz	t6,9d00750c <Dlab2>
9d007924:	00000000 	nop
9d007928:	01ae6823 	subu	t5,t5,t6
9d00792c:	000e3022 	neg	a2,t6
9d007930:	00cb3006 	srlv	a2,t3,a2
9d007934:	01cb5804 	sllv	t3,t3,t6
9d007938:	01cc6004 	sllv	t4,t4,t6
9d00793c:	1000fef3 	b	9d00750c <Dlab2>
9d007940:	01866025 	or	t4,t4,a2

9d007944 <i36>:
9d007944:	018b7825 	or	t7,t4,t3
9d007948:	11e00002 	beqz	t7,9d007954 <i38>
9d00794c:	00000000 	nop

9d007950 <Dnan>:
9d007950:	3c05fff8 	lui	a1,0xfff8

9d007954 <i38>:
9d007954:	1000ff93 	b	9d0077a4 <Dret>
9d007958:	24040000 	li	a0,0
9d00795c:	00000000 	nop

Disassembly of section .text.dp32subadd:

9d007960 <__subdf3>:
9d007960:	3c018000 00e13826                       ...<&8..

9d007968 <__adddf3>:
9d007968:	00055840 000b5d42 000552c0 00047d42     @X..B]...R..B}..
9d007978:	014f5025 00044ac0 3c088000 01485025     %PO..J.....<%PH.
9d007988:	00077040 000e7542 00076ac0 00067d42     @p..Bu...j..B}..
9d007998:	01af6825 000662c0 01a86825 256fffff     %h...b..%h....o%
9d0079a8:	2de107fe 1020008d 00000000              ...-.. .....

9d0079b4 <Blab1>:
9d0079b4:	25cfffff 	addiu	t7,t6,-1
9d0079b8:	2de107fe 	sltiu	at,t7,2046
9d0079bc:	102000bb 	beqz	at,9d007cac <BspecB>
9d0079c0:	00000000 	nop

9d0079c4 <Blab2>:
9d0079c4:	3c018000 	lui	at,0x8000
9d0079c8:	00a12824 	and	a1,a1,at
9d0079cc:	016e4023 	subu	t0,t3,t6
9d0079d0:	1100002c 	beqz	t0,9d007a84 <Badd3>
9d0079d4:	00000000 	nop
9d0079d8:	19000015 	blez	t0,9d007a30 <i1>
9d0079dc:	00000000 	nop

9d0079e0 <L1>:
9d0079e0:	2d010020 	sltiu	at,t0,32
9d0079e4:	14200007 	bnez	at,9d007a04 <L2>
9d0079e8:	00000000 	nop
9d0079ec:	2108ffe0 	addi	t0,t0,-32
9d0079f0:	000c302b 	sltu	a2,zero,t4
9d0079f4:	100d0023 	beq	zero,t5,9d007a84 <Badd3>
9d0079f8:	01a66025 	or	t4,t5,a2
9d0079fc:	1000fff8 	b	9d0079e0 <L1>
9d007a00:	340d0000 	li	t5,0x0

9d007a04 <L2>:
9d007a04:	1100001f 	beqz	t0,9d007a84 <Badd3>
9d007a08:	00000000 	nop
9d007a0c:	00082022 	neg	a0,t0
9d007a10:	008c3004 	sllv	a2,t4,a0
9d007a14:	008d2004 	sllv	a0,t5,a0
9d007a18:	010c6006 	srlv	t4,t4,t0
9d007a1c:	010d6806 	srlv	t5,t5,t0
9d007a20:	10c00018 	beqz	a2,9d007a84 <Badd3>
9d007a24:	008c6025 	or	t4,a0,t4
9d007a28:	10000016 	b	9d007a84 <Badd3>
9d007a2c:	358c0002 	ori	t4,t4,0x2

9d007a30 <i1>:
9d007a30:	000e5825 	or	t3,zero,t6
9d007a34:	00084023 	negu	t0,t0

9d007a38 <L4>:
9d007a38:	2d010020 	sltiu	at,t0,32
9d007a3c:	14200007 	bnez	at,9d007a5c <L5>
9d007a40:	00000000 	nop
9d007a44:	2108ffe0 	addi	t0,t0,-32
9d007a48:	0009302b 	sltu	a2,zero,t1
9d007a4c:	100a000d 	beq	zero,t2,9d007a84 <Badd3>
9d007a50:	01464825 	or	t1,t2,a2
9d007a54:	1000fff8 	b	9d007a38 <L4>
9d007a58:	340a0000 	li	t2,0x0

9d007a5c <L5>:
9d007a5c:	11000009 	beqz	t0,9d007a84 <Badd3>
9d007a60:	00000000 	nop
9d007a64:	00082022 	neg	a0,t0
9d007a68:	00893004 	sllv	a2,t1,a0
9d007a6c:	008a2004 	sllv	a0,t2,a0
9d007a70:	01094806 	srlv	t1,t1,t0
9d007a74:	010a5006 	srlv	t2,t2,t0
9d007a78:	10c00002 	beqz	a2,9d007a84 <Badd3>
9d007a7c:	00894825 	or	t1,a0,t1
9d007a80:	35290002 	ori	t1,t1,0x2

9d007a84 <Badd3>:
9d007a84:	00a77826 	xor	t7,a1,a3
9d007a88:	05e0001c 	bltz	t7,9d007afc <Bsub1>
9d007a8c:	00000000 	nop
9d007a90:	012c4821 	addu	t1,t1,t4
9d007a94:	012c782b 	sltu	t7,t1,t4
9d007a98:	014d5021 	addu	t2,t2,t5
9d007a9c:	014f5021 	addu	t2,t2,t7
9d007aa0:	114d0002 	beq	t2,t5,9d007aac <L7>
9d007aa4:	00000000 	nop
9d007aa8:	014d782b 	sltu	t7,t2,t5

9d007aac <L7>:
9d007aac:	11e00037 	beqz	t7,9d007b8c <Bres>
9d007ab0:	00000000 	nop
9d007ab4:	312f0001 	andi	t7,t1,0x1
9d007ab8:	11e00002 	beqz	t7,9d007ac4 <i3>
9d007abc:	00000000 	nop
9d007ac0:	35290002 	ori	t1,t1,0x2

9d007ac4 <i3>:
9d007ac4:	00094842 	srl	t1,t1,0x1
9d007ac8:	000a7fc0 	sll	t7,t2,0x1f
9d007acc:	012f4825 	or	t1,t1,t7
9d007ad0:	000a5042 	srl	t2,t2,0x1
9d007ad4:	3c018000 	lui	at,0x8000
9d007ad8:	01415025 	or	t2,t2,at
9d007adc:	256b0001 	addiu	t3,t3,1
9d007ae0:	240107ff 	li	at,2047
9d007ae4:	15610029 	bne	t3,at,9d007b8c <Bres>
9d007ae8:	00000000 	nop
9d007aec:	3c017ff0 	lui	at,0x7ff0
9d007af0:	00a12825 	or	a1,a1,at
9d007af4:	10000037 	b	9d007bd4 <BretA>
9d007af8:	24040000 	li	a0,0

9d007afc <Bsub1>:
9d007afc:	012c782b 	sltu	t7,t1,t4
9d007b00:	012c4823 	subu	t1,t1,t4
9d007b04:	014f102b 	sltu	v0,t2,t7
9d007b08:	014f5023 	subu	t2,t2,t7
9d007b0c:	014d782b 	sltu	t7,t2,t5
9d007b10:	01e27825 	or	t7,t7,v0
9d007b14:	11e00007 	beqz	t7,9d007b34 <i5>
9d007b18:	014d5023 	subu	t2,t2,t5
9d007b1c:	3c018000 	lui	at,0x8000
9d007b20:	00a12826 	xor	a1,a1,at
9d007b24:	0009782b 	sltu	t7,zero,t1
9d007b28:	00094823 	negu	t1,t1
9d007b2c:	000a5023 	negu	t2,t2
9d007b30:	014f5023 	subu	t2,t2,t7

9d007b34 <i5>:
9d007b34:	15400008 	bnez	t2,9d007b58 <L8>
9d007b38:	00000000 	nop
9d007b3c:	15200003 	bnez	t1,9d007b4c <L9>
9d007b40:	00000000 	nop
9d007b44:	1000000d 	b	9d007b7c <L10>
9d007b48:	240b0000 	li	t3,0

9d007b4c <L9>:
9d007b4c:	01205025 	move	t2,t1
9d007b50:	24090000 	li	t1,0
9d007b54:	256bffe0 	addiu	t3,t3,-32

9d007b58 <L8>:
9d007b58:	71484020 	clz	t0,t2
9d007b5c:	11000007 	beqz	t0,9d007b7c <L10>
9d007b60:	00000000 	nop
9d007b64:	01685823 	subu	t3,t3,t0
9d007b68:	00082022 	neg	a0,t0
9d007b6c:	00892006 	srlv	a0,t1,a0
9d007b70:	01094804 	sllv	t1,t1,t0
9d007b74:	010a5004 	sllv	t2,t2,t0
9d007b78:	01445025 	or	t2,t2,a0

9d007b7c <L10>:
9d007b7c:	01497825 	or	t7,t2,t1
9d007b80:	15e00002 	bnez	t7,9d007b8c <Bres>
9d007b84:	00000000 	nop
9d007b88:	24050000 	li	a1,0

9d007b8c <Bres>:
9d007b8c:	19600068 	blez	t3,9d007d30 <Bund>
9d007b90:	00000000 	nop

9d007b94 <Blab8>:
9d007b94:	25290400 	addiu	t1,t1,1024
9d007b98:	2d2f0400 	sltiu	t7,t1,1024
9d007b9c:	014f5021 	addu	t2,t2,t7
9d007ba0:	014f782b 	sltu	t7,t2,t7
9d007ba4:	016f5821 	addu	t3,t3,t7
9d007ba8:	00097ac2 	srl	t7,t1,0xb
9d007bac:	31ef0001 	andi	t7,t7,0x1
9d007bb0:	012f4823 	subu	t1,t1,t7
9d007bb4:	000922c2 	srl	a0,t1,0xb
9d007bb8:	000a7d40 	sll	t7,t2,0x15
9d007bbc:	008f2025 	or	a0,a0,t7
9d007bc0:	000a7840 	sll	t7,t2,0x1
9d007bc4:	000f7b02 	srl	t7,t7,0xc
9d007bc8:	00af2825 	or	a1,a1,t7
9d007bcc:	000b7d00 	sll	t7,t3,0x14
9d007bd0:	00af2825 	or	a1,a1,t7

9d007bd4 <BretA>:
9d007bd4:	00041025 	or	v0,zero,a0
9d007bd8:	00051825 	or	v1,zero,a1

9d007bdc <B999>:
9d007bdc:	03e00008 	jr	ra
9d007be0:	00000000 	nop

9d007be4 <BspecA>:
9d007be4:	0120782a 	slt	t7,t1,zero
9d007be8:	01294821 	addu	t1,t1,t1
9d007bec:	014a5021 	addu	t2,t2,t2
9d007bf0:	15600023 	bnez	t3,9d007c80 <i7>
9d007bf4:	014f5021 	addu	t2,t2,t7
9d007bf8:	01497825 	or	t7,t2,t1
9d007bfc:	11e00014 	beqz	t7,9d007c50 <i8>
9d007c00:	00000000 	nop
9d007c04:	15400008 	bnez	t2,9d007c28 <L11>
9d007c08:	00000000 	nop
9d007c0c:	15200003 	bnez	t1,9d007c1c <L12>
9d007c10:	00000000 	nop
9d007c14:	1000ff67 	b	9d0079b4 <Blab1>
9d007c18:	240b0000 	li	t3,0

9d007c1c <L12>:
9d007c1c:	01205025 	move	t2,t1
9d007c20:	24090000 	li	t1,0
9d007c24:	256bffe0 	addiu	t3,t3,-32

9d007c28 <L11>:
9d007c28:	71484020 	clz	t0,t2
9d007c2c:	1100ff61 	beqz	t0,9d0079b4 <Blab1>
9d007c30:	00000000 	nop
9d007c34:	01685823 	subu	t3,t3,t0
9d007c38:	00082022 	neg	a0,t0
9d007c3c:	00892006 	srlv	a0,t1,a0
9d007c40:	01094804 	sllv	t1,t1,t0
9d007c44:	010a5004 	sllv	t2,t2,t0
9d007c48:	1000ff5a 	b	9d0079b4 <Blab1>
9d007c4c:	01445025 	or	t2,t2,a0

9d007c50 <i8>:
9d007c50:	240107ff 	li	at,2047
9d007c54:	11c10015 	beq	t6,at,9d007cac <BspecB>
9d007c58:	00000000 	nop
9d007c5c:	00e74021 	addu	t0,a3,a3
9d007c60:	01067825 	or	t7,t0,a2
9d007c64:	15e00003 	bnez	t7,9d007c74 <BretB>
9d007c68:	00000000 	nop
9d007c6c:	04e0ffd9 	bltz	a3,9d007bd4 <BretA>
9d007c70:	00000000 	nop

9d007c74 <BretB>:
9d007c74:	00061025 	or	v0,zero,a2
9d007c78:	1000ffd8 	b	9d007bdc <B999>
9d007c7c:	00071825 	or	v1,zero,a3

9d007c80 <i7>:
9d007c80:	01497825 	or	t7,t2,t1
9d007c84:	15e00027 	bnez	t7,9d007d24 <Bnan>
9d007c88:	00000000 	nop
9d007c8c:	240107ff 	li	at,2047
9d007c90:	15c1ffd0 	bne	t6,at,9d007bd4 <BretA>
9d007c94:	00000000 	nop
9d007c98:	00a77826 	xor	t7,a1,a3
9d007c9c:	05e00021 	bltz	t7,9d007d24 <Bnan>
9d007ca0:	00000000 	nop
9d007ca4:	1000fff3 	b	9d007c74 <BretB>
9d007ca8:	00000000 	nop

9d007cac <BspecB>:
9d007cac:	0180782a 	slt	t7,t4,zero
9d007cb0:	018c6021 	addu	t4,t4,t4
9d007cb4:	01ad6821 	addu	t5,t5,t5
9d007cb8:	15c00017 	bnez	t6,9d007d18 <i11>
9d007cbc:	01af6821 	addu	t5,t5,t7
9d007cc0:	01ac7825 	or	t7,t5,t4
9d007cc4:	11e0ffc3 	beqz	t7,9d007bd4 <BretA>
9d007cc8:	00000000 	nop
9d007ccc:	15a00008 	bnez	t5,9d007cf0 <L14>
9d007cd0:	00000000 	nop
9d007cd4:	15800003 	bnez	t4,9d007ce4 <L15>
9d007cd8:	00000000 	nop
9d007cdc:	1000ff39 	b	9d0079c4 <Blab2>
9d007ce0:	240e0000 	li	t6,0

9d007ce4 <L15>:
9d007ce4:	01806825 	move	t5,t4
9d007ce8:	240c0000 	li	t4,0
9d007cec:	25ceffe0 	addiu	t6,t6,-32

9d007cf0 <L14>:
9d007cf0:	71a84020 	clz	t0,t5
9d007cf4:	1100ff33 	beqz	t0,9d0079c4 <Blab2>
9d007cf8:	00000000 	nop
9d007cfc:	01c87023 	subu	t6,t6,t0
9d007d00:	00082022 	neg	a0,t0
9d007d04:	008c2006 	srlv	a0,t4,a0
9d007d08:	010c6004 	sllv	t4,t4,t0
9d007d0c:	010d6804 	sllv	t5,t5,t0
9d007d10:	1000ff2c 	b	9d0079c4 <Blab2>
9d007d14:	01a46825 	or	t5,t5,a0

9d007d18 <i11>:
9d007d18:	01ac7825 	or	t7,t5,t4
9d007d1c:	11e0ffd5 	beqz	t7,9d007c74 <BretB>
9d007d20:	00000000 	nop

9d007d24 <Bnan>:
9d007d24:	3c05fff8 	lui	a1,0xfff8
9d007d28:	1000ffaa 	b	9d007bd4 <BretA>
9d007d2c:	24040000 	li	a0,0

9d007d30 <Bund>:
9d007d30:	24080001 	li	t0,1
9d007d34:	010b4023 	subu	t0,t0,t3

9d007d38 <L17>:
9d007d38:	2d010020 	sltiu	at,t0,32
9d007d3c:	14200007 	bnez	at,9d007d5c <L18>
9d007d40:	00000000 	nop
9d007d44:	2108ffe0 	addi	t0,t0,-32
9d007d48:	0009302b 	sltu	a2,zero,t1
9d007d4c:	100a000d 	beq	zero,t2,9d007d84 <L19>
9d007d50:	01464825 	or	t1,t2,a2
9d007d54:	1000fff8 	b	9d007d38 <L17>
9d007d58:	340a0000 	li	t2,0x0

9d007d5c <L18>:
9d007d5c:	11000009 	beqz	t0,9d007d84 <L19>
9d007d60:	00000000 	nop
9d007d64:	00082022 	neg	a0,t0
9d007d68:	00893004 	sllv	a2,t1,a0
9d007d6c:	008a2004 	sllv	a0,t2,a0
9d007d70:	01094806 	srlv	t1,t1,t0
9d007d74:	010a5006 	srlv	t2,t2,t0
9d007d78:	10c00002 	beqz	a2,9d007d84 <L19>
9d007d7c:	00894825 	or	t1,a0,t1
9d007d80:	35290002 	ori	t1,t1,0x2

9d007d84 <L19>:
9d007d84:	1000ff83 	b	9d007b94 <Blab8>
9d007d88:	240b0000 	li	t3,0
9d007d8c:	00000000 	nop

Disassembly of section .text:

9d007d90 <initSPI>:
void initSPI() {
    // Pin B14 has to be SCK1
    // Turn off analog pins
    // ANSELB = 0;
    // Make an output pin for CS
    TRISBbits.TRISB7 = 0; // output
9d007d90:	3c02bf88 	lui	v0,0xbf88
9d007d94:	94436110 	lhu	v1,24848(v0)
9d007d98:	7c0339c4 	ins	v1,zero,0x7,0x1
9d007d9c:	a4436110 	sh	v1,24848(v0)
    LATBbits.LATB7 = 1; // high
9d007da0:	3c02bf88 	lui	v0,0xbf88
9d007da4:	94446130 	lhu	a0,24880(v0)
9d007da8:	24030001 	li	v1,1
9d007dac:	7c6439c4 	ins	a0,v1,0x7,0x1
9d007db0:	a4446130 	sh	a0,24880(v0)
    // Set SDO1
    RPB6Rbits.RPB6R = 0b0011; //B6
9d007db4:	3c02bf81 	lui	v0,0xbf81
9d007db8:	9044fb44 	lbu	a0,-1212(v0)
9d007dbc:	24050003 	li	a1,3
9d007dc0:	7ca41804 	ins	a0,a1,0x0,0x4
9d007dc4:	a044fb44 	sb	a0,-1212(v0)
    // Set SDI1 not using
    SDI1Rbits.SDI1R = 0b0100; //B8
9d007dc8:	3c02bf81 	lui	v0,0xbf81
9d007dcc:	9044fa84 	lbu	a0,-1404(v0)
9d007dd0:	24050004 	li	a1,4
9d007dd4:	7ca41804 	ins	a0,a1,0x0,0x4
9d007dd8:	a044fa84 	sb	a0,-1404(v0)

    // setup SPI1
    SPI1CON = 0; // turn off the spi module and reset it
9d007ddc:	3c02bf80 	lui	v0,0xbf80
9d007de0:	ac405800 	sw	zero,22528(v0)
    SPI1BUF; // clear the rx buffer by reading from it
9d007de4:	3c02bf80 	lui	v0,0xbf80
9d007de8:	8c425820 	lw	v0,22560(v0)
    SPI1BRG = 400; // 1000 for 24kHz, 1 for 12MHz; // baud rate to 10 MHz [SPI1BRG = (48000000/(2*desired))-1]
9d007dec:	3c02bf80 	lui	v0,0xbf80
9d007df0:	24040190 	li	a0,400
9d007df4:	ac445830 	sw	a0,22576(v0)
    SPI1STATbits.SPIROV = 0; // clear the overflow bit
9d007df8:	3c02bf80 	lui	v0,0xbf80
9d007dfc:	8c445810 	lw	a0,22544(v0)
9d007e00:	7c043184 	ins	a0,zero,0x6,0x1
9d007e04:	ac445810 	sw	a0,22544(v0)
    SPI1CONbits.CKE = 1; // data changes when clock goes from hi to lo (since CKP is 0)
9d007e08:	3c02bf80 	lui	v0,0xbf80
9d007e0c:	8c445800 	lw	a0,22528(v0)
9d007e10:	7c644204 	ins	a0,v1,0x8,0x1
9d007e14:	ac445800 	sw	a0,22528(v0)
    SPI1CONbits.MSTEN = 1; // master operation
9d007e18:	8c445800 	lw	a0,22528(v0)
9d007e1c:	7c642944 	ins	a0,v1,0x5,0x1
9d007e20:	ac445800 	sw	a0,22528(v0)
    SPI1CONbits.ON = 1; // turn on spi 
9d007e24:	8c445800 	lw	a0,22528(v0)
9d007e28:	7c647bc4 	ins	a0,v1,0xf,0x1
9d007e2c:	ac445800 	sw	a0,22528(v0)
}
9d007e30:	03e00008 	jr	ra
9d007e34:	00000000 	nop

9d007e38 <spi_io>:

// send a byte via spi and return the response
unsigned char spi_io(unsigned char o) {
  SPI1BUF = o;
9d007e38:	3c02bf80 	lui	v0,0xbf80
9d007e3c:	ac445820 	sw	a0,22560(v0)
  while(!SPI1STATbits.SPIRBF) { // wait to receive the byte
9d007e40:	3c03bf80 	lui	v1,0xbf80
9d007e44:	8c625810 	lw	v0,22544(v1)
9d007e48:	30420001 	andi	v0,v0,0x1
9d007e4c:	1040fffd 	beqz	v0,9d007e44 <spi_io+0xc>
9d007e50:	3c02bf80 	lui	v0,0xbf80
    ;
  }
  return SPI1BUF;
9d007e54:	8c425820 	lw	v0,22560(v0)
}
9d007e58:	03e00008 	jr	ra
9d007e5c:	304200ff 	andi	v0,v0,0xff

9d007e60 <io>:


unsigned short io (unsigned short x, int a_or_b){
9d007e60:	27bdffe0 	addiu	sp,sp,-32
9d007e64:	afbf001c 	sw	ra,28(sp)
9d007e68:	afb10018 	sw	s1,24(sp)
9d007e6c:	afb00014 	sw	s0,20(sp)
  unsigned short out = 0;
  out = out | 0b111 << 12;
  out = out | (a_or_b) << 15;
9d007e70:	00052bc0 	sll	a1,a1,0xf
  out = out | (x << 2);
9d007e74:	00048080 	sll	s0,a0,0x2
9d007e78:	00b08025 	or	s0,a1,s0
9d007e7c:	36107000 	ori	s0,s0,0x7000
9d007e80:	7c108620 	seh	s0,s0
  LATBbits.LATB7 = 0;
9d007e84:	3c11bf88 	lui	s1,0xbf88
9d007e88:	96226130 	lhu	v0,24880(s1)
9d007e8c:	7c0239c4 	ins	v0,zero,0x7,0x1
9d007e90:	a6226130 	sh	v0,24880(s1)
  spi_io(out >> 8);
9d007e94:	0f401f8e 	jal	9d007e38 <spi_io>
9d007e98:	7e043a00 	ext	a0,s0,0x8,0x8
  spi_io(out & 0xFF);
9d007e9c:	0f401f8e 	jal	9d007e38 <spi_io>
9d007ea0:	320400fc 	andi	a0,s0,0xfc
  LATBbits.LATB7 = 1;
9d007ea4:	96226130 	lhu	v0,24880(s1)
9d007ea8:	24030001 	li	v1,1
9d007eac:	7c6239c4 	ins	v0,v1,0x7,0x1
9d007eb0:	a6226130 	sh	v0,24880(s1)
}
9d007eb4:	8fbf001c 	lw	ra,28(sp)
9d007eb8:	8fb10018 	lw	s1,24(sp)
9d007ebc:	8fb00014 	lw	s0,20(sp)
9d007ec0:	03e00008 	jr	ra
9d007ec4:	27bd0020 	addiu	sp,sp,32

9d007ec8 <main>:


int main(){
9d007ec8:	27bdffb0 	addiu	sp,sp,-80
9d007ecc:	afbf004c 	sw	ra,76(sp)
9d007ed0:	afbe0048 	sw	s8,72(sp)
9d007ed4:	afb60044 	sw	s6,68(sp)
9d007ed8:	afb50040 	sw	s5,64(sp)
9d007edc:	afb4003c 	sw	s4,60(sp)
9d007ee0:	afb30038 	sw	s3,56(sp)
9d007ee4:	afb20034 	sw	s2,52(sp)
9d007ee8:	afb10030 	sw	s1,48(sp)
9d007eec:	afb0002c 	sw	s0,44(sp)
    initSPI();
9d007ef0:	0f401f64 	jal	9d007d90 <initSPI>
9d007ef4:	03a0f025 	move	s8,sp
    NU32DIP_Startup(); 
9d007ef8:	0f4020fd 	jal	9d0083f4 <NU32DIP_Startup>
9d007efc:	0000a025 	move	s4,zero
    int i = 0, j = 0, t = 0, delay = 1; //s  //2400000;
    float sin_val, tri_val; 
    unsigned int sine;
    unsigned int trig;
    int len = 400;
    int sinwave[len];
9d007f00:	27bdf9c0 	addiu	sp,sp,-1600
9d007f04:	27b10010 	addiu	s1,sp,16
    int triwave[len];
9d007f08:	27bdf9c0 	addiu	sp,sp,-1600
9d007f0c:	27b00010 	addiu	s0,sp,16

  for(i = 0; i < len; i++){
9d007f10:	0220a825 	move	s5,s1
    // make sine wave 2Hz
    sin_val = 1023/2*sin(16*pi*i/len) + 1023/2;
9d007f14:	3c029d00 	lui	v0,0x9d00
9d007f18:	8c527490 	lw	s2,29840(v0)
9d007f1c:	8c537494 	lw	s3,29844(v0)
9d007f20:	3c029d00 	lui	v0,0x9d00
9d007f24:	8c43749c 	lw	v1,29852(v0)
9d007f28:	8c427498 	lw	v0,29848(v0)
9d007f2c:	afc20010 	sw	v0,16(s8)
9d007f30:	afc30014 	sw	v1,20(s8)
9d007f34:	3c029d00 	lui	v0,0x9d00
9d007f38:	8c4474a0 	lw	a0,29856(v0)
9d007f3c:	8c4574a4 	lw	a1,29860(v0)
9d007f40:	afc40018 	sw	a0,24(s8)
9d007f44:	afc5001c 	sw	a1,28(s8)
9d007f48:	afc40020 	sw	a0,32(s8)
9d007f4c:	afc50024 	sw	a1,36(s8)
  for(i = 0; i < len; i++){
9d007f50:	24160190 	li	s6,400
    sin_val = 1023/2*sin(16*pi*i/len) + 1023/2;
9d007f54:	0f402390 	jal	9d008e40 <__floatsidf>
9d007f58:	02802025 	move	a0,s4
9d007f5c:	02403025 	move	a2,s2
9d007f60:	02603825 	move	a3,s3
9d007f64:	00402025 	move	a0,v0
9d007f68:	0f402032 	jal	9d0080c8 <__muldf3>
9d007f6c:	00602825 	move	a1,v1
9d007f70:	8fc60010 	lw	a2,16(s8)
9d007f74:	8fc70014 	lw	a3,20(s8)
9d007f78:	00402025 	move	a0,v0
9d007f7c:	0f401d2a 	jal	9d0074a8 <__divdf3>
9d007f80:	00602825 	move	a1,v1
9d007f84:	00402025 	move	a0,v0
9d007f88:	0f4021db 	jal	9d00876c <dpsin>
9d007f8c:	00602825 	move	a1,v1
9d007f90:	8fc60018 	lw	a2,24(s8)
9d007f94:	8fc7001c 	lw	a3,28(s8)
9d007f98:	00402025 	move	a0,v0
9d007f9c:	0f402032 	jal	9d0080c8 <__muldf3>
9d007fa0:	00602825 	move	a1,v1
9d007fa4:	8fc60020 	lw	a2,32(s8)
9d007fa8:	8fc70024 	lw	a3,36(s8)
9d007fac:	00402025 	move	a0,v0
9d007fb0:	0f401e5a 	jal	9d007968 <__adddf3>
9d007fb4:	00602825 	move	a1,v1
9d007fb8:	00402025 	move	a0,v0
9d007fbc:	0f402285 	jal	9d008a14 <__truncdfsf2>
9d007fc0:	00602825 	move	a1,v1
    sinwave[i] = sin_val;
9d007fc4:	0f402350 	jal	9d008d40 <__fixsfsi>
9d007fc8:	00402025 	move	a0,v0
9d007fcc:	ae220000 	sw	v0,0(s1)
  for(i = 0; i < len; i++){
9d007fd0:	26940001 	addiu	s4,s4,1
9d007fd4:	1696ffdf 	bne	s4,s6,9d007f54 <main+0x8c>
9d007fd8:	26310004 	addiu	s1,s1,4
9d007fdc:	0200a025 	move	s4,s0
9d007fe0:	00008825 	move	s1,zero
9d007fe4:	24130001 	li	s3,1
    if(j < len/200){
      tri_val = 1023 * j /(len/4);
      triwave[j] = tri_val; 
    }
    else{
      tri_val = 1023 * (len - j) /(len/4);
9d007fe8:	3c160006 	lui	s6,0x6
9d007fec:	26d63e70 	addiu	s6,s6,15984
9d007ff0:	3c1251eb 	lui	s2,0x51eb
9d007ff4:	3652851f 	ori	s2,s2,0x851f
    if(j < len/200){
9d007ff8:	2662ffff 	addiu	v0,s3,-1
9d007ffc:	28420002 	slti	v0,v0,2
9d008000:	1040000d 	beqz	v0,9d008038 <main+0x170>
9d008004:	02320018 	mult	s1,s2
      tri_val = 1023 * j /(len/4);
9d008008:	00001010 	mfhi	v0
9d00800c:	00021143 	sra	v0,v0,0x5
9d008010:	001127c3 	sra	a0,s1,0x1f
9d008014:	0f4023ae 	jal	9d008eb8 <__floatsisf>
9d008018:	00442023 	subu	a0,v0,a0
      triwave[j] = tri_val; 
9d00801c:	0f402350 	jal	9d008d40 <__fixsfsi>
9d008020:	00402025 	move	a0,v0
9d008024:	ae020000 	sw	v0,0(s0)
9d008028:	26730001 	addiu	s3,s3,1
9d00802c:	263103ff 	addiu	s1,s1,1023
9d008030:	1000fff1 	b	9d007ff8 <main+0x130>
9d008034:	26100004 	addiu	s0,s0,4
      tri_val = 1023 * (len - j) /(len/4);
9d008038:	02d11023 	subu	v0,s6,s1
9d00803c:	00520018 	mult	v0,s2
9d008040:	00002010 	mfhi	a0
9d008044:	00042143 	sra	a0,a0,0x5
9d008048:	000217c3 	sra	v0,v0,0x1f
9d00804c:	0f4023ae 	jal	9d008eb8 <__floatsisf>
9d008050:	00822023 	subu	a0,a0,v0
      triwave[j] = tri_val; 
9d008054:	0f402350 	jal	9d008d40 <__fixsfsi>
9d008058:	00402025 	move	a0,v0
9d00805c:	ae020000 	sw	v0,0(s0)
  for(j = 0; j < len; j++)
9d008060:	2a620190 	slti	v0,s3,400
9d008064:	1440fff1 	bnez	v0,9d00802c <main+0x164>
9d008068:	26730001 	addiu	s3,s3,1
9d00806c:	26b20640 	addiu	s2,s5,1600
      // sin_out = sinwave[k] | 0b111;
      // sin_out = sin
      io(sinwave[t],0);
      io(triwave[t],1);
      _CP0_SET_COUNT(0);
      while(_CP0_GET_COUNT() < 48000000 / 2 / 100){}
9d008070:	3c110003 	lui	s1,0x3
9d008074:	3631a980 	ori	s1,s1,0xa980
  for(i = 0; i < len; i++){
9d008078:	02809825 	move	s3,s4
9d00807c:	02a08025 	move	s0,s5
      io(sinwave[t],0);
9d008080:	00002825 	move	a1,zero
9d008084:	0f401f98 	jal	9d007e60 <io>
9d008088:	96040000 	lhu	a0,0(s0)
      io(triwave[t],1);
9d00808c:	24050001 	li	a1,1
9d008090:	0f401f98 	jal	9d007e60 <io>
9d008094:	96640000 	lhu	a0,0(s3)
      _CP0_SET_COUNT(0);
9d008098:	00001025 	move	v0,zero
9d00809c:	40824800 	mtc0	v0,c0_count
9d0080a0:	000000c0 	ehb
      while(_CP0_GET_COUNT() < 48000000 / 2 / 100){}
9d0080a4:	40024800 	mfc0	v0,c0_count
9d0080a8:	0051102b 	sltu	v0,v0,s1
9d0080ac:	1440fffd 	bnez	v0,9d0080a4 <main+0x1dc>
9d0080b0:	00000000 	nop
9d0080b4:	26100004 	addiu	s0,s0,4
    for(t = 0; t < len; t++){
9d0080b8:	1612fff1 	bne	s0,s2,9d008080 <main+0x1b8>
9d0080bc:	26730004 	addiu	s3,s3,4
  for(i = 0; i < len; i++){
9d0080c0:	1000ffee 	b	9d00807c <main+0x1b4>
9d0080c4:	02809825 	move	s3,s4

Disassembly of section .text.dp32mul:

9d0080c8 <__muldf3>:
9d0080c8:	00055040 000a5542 00054ac0 00047d42     @P..BU...J..B}..
9d0080d8:	012f4825 000442c0 3c0e8000 012e4825     %H/..B.....<%H..
9d0080e8:	00076840 000d6d42 000762c0 00067d42     @h..Bm...b..B}..
9d0080f8:	018f6025 00065ac0 018e6025 00a72826     %`...Z..%`..&(..
9d008108:	00ae2824 254fffff 2de107fe 10200047     $(....O%...-G. .
9d008118:	00000000                                ....

9d00811c <Clab1>:
9d00811c:	25afffff 	addiu	t7,t5,-1
9d008120:	2de107fe 	sltiu	at,t7,2046
9d008124:	1020006f 	beqz	at,9d0082e4 <CspecB>
9d008128:	00000000 	nop

9d00812c <Clab2>:
9d00812c:	25affc02 	addiu	t7,t5,-1022
9d008130:	014f5021 	addu	t2,t2,t7
9d008134:	012c0019 	multu	t1,t4
9d008138:	00003812 	mflo	a3
9d00813c:	00007010 	mfhi	t6
9d008140:	010b0019 	multu	t0,t3
9d008144:	00002012 	mflo	a0
9d008148:	00003010 	mfhi	a2
9d00814c:	012b0019 	multu	t1,t3
9d008150:	00005812 	mflo	t3
9d008154:	00006810 	mfhi	t5
9d008158:	00cb3021 	addu	a2,a2,t3
9d00815c:	00cb782b 	sltu	t7,a2,t3
9d008160:	00ed3821 	addu	a3,a3,t5
9d008164:	00ef3821 	addu	a3,a3,t7
9d008168:	10ed0002 	beq	a3,t5,9d008174 <L20>
9d00816c:	00000000 	nop
9d008170:	00ed782b 	sltu	t7,a3,t5

9d008174 <L20>:
9d008174:	01cf7021 	addu	t6,t6,t7
9d008178:	010c0019 	multu	t0,t4
9d00817c:	00004012 	mflo	t0
9d008180:	00004810 	mfhi	t1
9d008184:	00c83021 	addu	a2,a2,t0
9d008188:	00c8782b 	sltu	t7,a2,t0
9d00818c:	00e93821 	addu	a3,a3,t1
9d008190:	00ef3821 	addu	a3,a3,t7
9d008194:	10e90002 	beq	a3,t1,9d0081a0 <L21>
9d008198:	00000000 	nop
9d00819c:	00e9782b 	sltu	t7,a3,t1

9d0081a0 <L21>:
9d0081a0:	01cf7021 	addu	t6,t6,t7
9d0081a4:	00867825 	or	t7,a0,a2
9d0081a8:	11e00002 	beqz	t7,9d0081b4 <i13>
9d0081ac:	00000000 	nop
9d0081b0:	34e70001 	ori	a3,a3,0x1

9d0081b4 <i13>:
9d0081b4:	000e4825 	or	t1,zero,t6
9d0081b8:	05200006 	bltz	t1,9d0081d4 <i14>
9d0081bc:	00074025 	or	t0,zero,a3
9d0081c0:	0100782a 	slt	t7,t0,zero
9d0081c4:	01084021 	addu	t0,t0,t0
9d0081c8:	01294821 	addu	t1,t1,t1
9d0081cc:	012f4821 	addu	t1,t1,t7
9d0081d0:	254affff 	addiu	t2,t2,-1

9d0081d4 <i14>:
9d0081d4:	254fffff 	addiu	t7,t2,-1
9d0081d8:	2de107fe 	sltiu	at,t7,2046
9d0081dc:	10200068 	beqz	at,9d008380 <Coveund>
9d0081e0:	00000000 	nop
9d0081e4:	25080400 	addiu	t0,t0,1024
9d0081e8:	2d0f0400 	sltiu	t7,t0,1024
9d0081ec:	012f4821 	addu	t1,t1,t7
9d0081f0:	012f782b 	sltu	t7,t1,t7
9d0081f4:	014f5021 	addu	t2,t2,t7

9d0081f8 <Clab8>:
9d0081f8:	00087ac2 	srl	t7,t0,0xb
9d0081fc:	31ef0001 	andi	t7,t7,0x1
9d008200:	010f4023 	subu	t0,t0,t7
9d008204:	000822c2 	srl	a0,t0,0xb
9d008208:	00097d40 	sll	t7,t1,0x15
9d00820c:	008f2025 	or	a0,a0,t7
9d008210:	00097840 	sll	t7,t1,0x1
9d008214:	000f7b02 	srl	t7,t7,0xc
9d008218:	00af2825 	or	a1,a1,t7
9d00821c:	000a7d00 	sll	t7,t2,0x14
9d008220:	00af2825 	or	a1,a1,t7

9d008224 <Cret>:
9d008224:	00041025 	or	v0,zero,a0
9d008228:	00051825 	or	v1,zero,a1

9d00822c <C999>:
9d00822c:	03e00008 	jr	ra
9d008230:	00000000 	nop

9d008234 <CspecA>:
9d008234:	0100782a 	slt	t7,t0,zero
9d008238:	01084021 	addu	t0,t0,t0
9d00823c:	01294821 	addu	t1,t1,t1
9d008240:	1540001c 	bnez	t2,9d0082b4 <i15>
9d008244:	012f4821 	addu	t1,t1,t7
9d008248:	01287825 	or	t7,t1,t0
9d00824c:	11e00014 	beqz	t7,9d0082a0 <i16>
9d008250:	00000000 	nop
9d008254:	15200008 	bnez	t1,9d008278 <L22>
9d008258:	00000000 	nop
9d00825c:	15000003 	bnez	t0,9d00826c <L23>
9d008260:	00000000 	nop
9d008264:	1000ffad 	b	9d00811c <Clab1>
9d008268:	240a0000 	li	t2,0

9d00826c <L23>:
9d00826c:	01004825 	move	t1,t0
9d008270:	24080000 	li	t0,0
9d008274:	254affe0 	addiu	t2,t2,-32

9d008278 <L22>:
9d008278:	712e7020 	clz	t6,t1
9d00827c:	11c0ffa7 	beqz	t6,9d00811c <Clab1>
9d008280:	00000000 	nop
9d008284:	014e5023 	subu	t2,t2,t6
9d008288:	000e3822 	neg	a3,t6
9d00828c:	00e83806 	srlv	a3,t0,a3
9d008290:	01c84004 	sllv	t0,t0,t6
9d008294:	01c94804 	sllv	t1,t1,t6
9d008298:	1000ffa0 	b	9d00811c <Clab1>
9d00829c:	01274825 	or	t1,t1,a3

9d0082a0 <i16>:
9d0082a0:	240107ff 	li	at,2047
9d0082a4:	11a10033 	beq	t5,at,9d008374 <Cnan>
9d0082a8:	00000000 	nop
9d0082ac:	1000ffdd 	b	9d008224 <Cret>
9d0082b0:	00000000 	nop

9d0082b4 <i15>:
9d0082b4:	01287825 	or	t7,t1,t0
9d0082b8:	15e0002e 	bnez	t7,9d008374 <Cnan>
9d0082bc:	00000000 	nop
9d0082c0:	15a00005 	bnez	t5,9d0082d8 <i17>
9d0082c4:	00000000 	nop
9d0082c8:	000c7840 	sll	t7,t4,0x1
9d0082cc:	01eb7825 	or	t7,t7,t3
9d0082d0:	11e00028 	beqz	t7,9d008374 <Cnan>
9d0082d4:	00000000 	nop

9d0082d8 <i17>:
9d0082d8:	240107ff 	li	at,2047
9d0082dc:	15a10021 	bne	t5,at,9d008364 <Cinf>
9d0082e0:	00000000 	nop

9d0082e4 <CspecB>:
9d0082e4:	0160782a 	slt	t7,t3,zero
9d0082e8:	016b5821 	addu	t3,t3,t3
9d0082ec:	018c6021 	addu	t4,t4,t4
9d0082f0:	15a00019 	bnez	t5,9d008358 <i18>
9d0082f4:	018f6021 	addu	t4,t4,t7
9d0082f8:	018b7825 	or	t7,t4,t3
9d0082fc:	11e00014 	beqz	t7,9d008350 <i19>
9d008300:	00000000 	nop
9d008304:	15800008 	bnez	t4,9d008328 <L25>
9d008308:	00000000 	nop
9d00830c:	15600003 	bnez	t3,9d00831c <L26>
9d008310:	00000000 	nop
9d008314:	1000ff85 	b	9d00812c <Clab2>
9d008318:	240d0000 	li	t5,0

9d00831c <L26>:
9d00831c:	01606025 	move	t4,t3
9d008320:	240b0000 	li	t3,0
9d008324:	25adffe0 	addiu	t5,t5,-32

9d008328 <L25>:
9d008328:	71863020 	clz	a2,t4
9d00832c:	10c0ff7f 	beqz	a2,9d00812c <Clab2>
9d008330:	00000000 	nop
9d008334:	01a66823 	subu	t5,t5,a2
9d008338:	00067022 	neg	t6,a2
9d00833c:	01cb7006 	srlv	t6,t3,t6
9d008340:	00cb5804 	sllv	t3,t3,a2
9d008344:	00cc6004 	sllv	t4,t4,a2
9d008348:	1000ff78 	b	9d00812c <Clab2>
9d00834c:	018e6025 	or	t4,t4,t6

9d008350 <i19>:
9d008350:	1000ffb4 	b	9d008224 <Cret>
9d008354:	24040000 	li	a0,0

9d008358 <i18>:
9d008358:	018b7825 	or	t7,t4,t3
9d00835c:	15e00005 	bnez	t7,9d008374 <Cnan>
9d008360:	00000000 	nop

9d008364 <Cinf>:
9d008364:	3c017ff0 	lui	at,0x7ff0
9d008368:	00a12825 	or	a1,a1,at
9d00836c:	1000ffad 	b	9d008224 <Cret>
9d008370:	24040000 	li	a0,0

9d008374 <Cnan>:
9d008374:	3c05fff8 	lui	a1,0xfff8
9d008378:	1000ffaa 	b	9d008224 <Cret>
9d00837c:	24040000 	li	a0,0

9d008380 <Coveund>:
9d008380:	1d40fff8 	bgtz	t2,9d008364 <Cinf>
9d008384:	00000000 	nop
9d008388:	240e0001 	li	t6,1
9d00838c:	01ca7023 	subu	t6,t6,t2

9d008390 <L28>:
9d008390:	2dc10020 	sltiu	at,t6,32
9d008394:	14200007 	bnez	at,9d0083b4 <L29>
9d008398:	00000000 	nop
9d00839c:	21ceffe0 	addi	t6,t6,-32
9d0083a0:	0008302b 	sltu	a2,zero,t0
9d0083a4:	1009000d 	beq	zero,t1,9d0083dc <L30>
9d0083a8:	01264025 	or	t0,t1,a2
9d0083ac:	1000fff8 	b	9d008390 <L28>
9d0083b0:	34090000 	li	t1,0x0

9d0083b4 <L29>:
9d0083b4:	11c00009 	beqz	t6,9d0083dc <L30>
9d0083b8:	00000000 	nop
9d0083bc:	000e3822 	neg	a3,t6
9d0083c0:	00e83004 	sllv	a2,t0,a3
9d0083c4:	00e93804 	sllv	a3,t1,a3
9d0083c8:	01c84006 	srlv	t0,t0,t6
9d0083cc:	01c94806 	srlv	t1,t1,t6
9d0083d0:	10c00002 	beqz	a2,9d0083dc <L30>
9d0083d4:	00e84025 	or	t0,a3,t0
9d0083d8:	35080002 	ori	t0,t0,0x2

9d0083dc <L30>:
9d0083dc:	25080400 	addiu	t0,t0,1024
9d0083e0:	2d0f0400 	sltiu	t7,t0,1024
9d0083e4:	012f4821 	addu	t1,t1,t7
9d0083e8:	1000ff83 	b	9d0081f8 <Clab8>
9d0083ec:	000957c2 	srl	t2,t1,0x1f
9d0083f0:	00000000 	nop

Disassembly of section .text:

9d0083f4 <NU32DIP_Startup>:
#include "nu32dip.h"

void NU32DIP_Startup() {
9d0083f4:	27bdfff8 	addiu	sp,sp,-8
9d0083f8:	afbf0004 	sw	ra,4(sp)
    __builtin_disable_interrupts(); // disable interrupts while initializing things
9d0083fc:	41626000 	di	v0
9d008400:	000000c0 	ehb

    // set the CP0 CONFIG register to indicate that kseg0 is cacheable (0x3)
    __builtin_mtc0(_CP0_CONFIG, _CP0_CONFIG_SELECT, 0xa4210583);
9d008404:	3c02a421 	lui	v0,0xa421
9d008408:	24420583 	addiu	v0,v0,1411
9d00840c:	40828000 	mtc0	v0,c0_config
9d008410:	000000c0 	ehb

    // 0 data RAM access wait states
    BMXCONbits.BMXWSDRM = 0x0;
9d008414:	3c02bf88 	lui	v0,0xbf88
9d008418:	8c432000 	lw	v1,8192(v0)
9d00841c:	7c033184 	ins	v1,zero,0x6,0x1
9d008420:	ac432000 	sw	v1,8192(v0)

    // enable multi vector interrupts
    INTCONbits.MVEC = 0x1;
9d008424:	3c02bf88 	lui	v0,0xbf88
9d008428:	8c441000 	lw	a0,4096(v0)
9d00842c:	24030001 	li	v1,1
9d008430:	7c646304 	ins	a0,v1,0xc,0x1
9d008434:	ac441000 	sw	a0,4096(v0)

    // disable JTAG to get pins back
    DDPCONbits.JTAGEN = 0;
9d008438:	3c02bf81 	lui	v0,0xbf81
9d00843c:	9444f200 	lhu	a0,-3584(v0)
9d008440:	7c0418c4 	ins	a0,zero,0x3,0x1
9d008444:	a444f200 	sh	a0,-3584(v0)

    // do your TRIS and LAT commands here
    TRISBCLR = 0b110000; // B4 and B5 LEDs
9d008448:	3c02bf88 	lui	v0,0xbf88
9d00844c:	24040030 	li	a0,48
9d008450:	ac446114 	sw	a0,24852(v0)
    TRISASET = 0b010000; // A4 user button
9d008454:	3c02bf88 	lui	v0,0xbf88
9d008458:	24040010 	li	a0,16
9d00845c:	ac446018 	sw	a0,24600(v0)
    //NU32_LED1 = 1; // LED1 is off
    NU32DIP_YELLOW = 1;
9d008460:	3c02bf88 	lui	v0,0xbf88
9d008464:	94446130 	lhu	a0,24880(v0)
9d008468:	7c642944 	ins	a0,v1,0x5,0x1
9d00846c:	a4446130 	sh	a0,24880(v0)
    //NU32_LED2 = 0; // LED2 is on
    NU32DIP_GREEN = 0;
9d008470:	94446130 	lhu	a0,24880(v0)
9d008474:	7c042104 	ins	a0,zero,0x4,0x1
9d008478:	a4446130 	sh	a0,24880(v0)

    //UART1 pins
    U1RXRbits.U1RXR = 0b0000; // Set A2 to U1RX
9d00847c:	3c02bf81 	lui	v0,0xbf81
9d008480:	9044fa50 	lbu	a0,-1456(v0)
9d008484:	7c041804 	ins	a0,zero,0x0,0x4
9d008488:	a044fa50 	sb	a0,-1456(v0)
    RPB3Rbits.RPB3R = 0b0001; // Set B3 to U1TX
9d00848c:	3c02bf81 	lui	v0,0xbf81
9d008490:	9044fb38 	lbu	a0,-1224(v0)
9d008494:	7c641804 	ins	a0,v1,0x0,0x4
9d008498:	a044fb38 	sb	a0,-1224(v0)

    // turn on UART1 without an interrupt
    U1MODEbits.BRGH = 0; // set baud to NU32_DESIRED_BAUD
9d00849c:	3c02bf80 	lui	v0,0xbf80
9d0084a0:	94446000 	lhu	a0,24576(v0)
9d0084a4:	7c0418c4 	ins	a0,zero,0x3,0x1
9d0084a8:	a4446000 	sh	a0,24576(v0)
    U1BRG = ((NU32DIP_SYS_FREQ / NU32DIP_DESIRED_BAUD) / 16) - 1;
9d0084ac:	3c04bf80 	lui	a0,0xbf80
9d0084b0:	2405000c 	li	a1,12
9d0084b4:	ac856040 	sw	a1,24640(a0)

    // 8 bit, no parity bit, and 1 stop bit (8N1 setup)
    U1MODEbits.PDSEL = 0;
9d0084b8:	94446000 	lhu	a0,24576(v0)
9d0084bc:	7c041044 	ins	a0,zero,0x1,0x2
9d0084c0:	a4446000 	sh	a0,24576(v0)
    U1MODEbits.STSEL = 0;
9d0084c4:	94446000 	lhu	a0,24576(v0)
9d0084c8:	7c040004 	ins	a0,zero,0x0,0x1
9d0084cc:	a4446000 	sh	a0,24576(v0)

    // configure TX & RX pins as output & input pins
    U1STAbits.UTXEN = 1;
9d0084d0:	3c04bf80 	lui	a0,0xbf80
9d0084d4:	8c856010 	lw	a1,24592(a0)
9d0084d8:	7c655284 	ins	a1,v1,0xa,0x1
9d0084dc:	ac856010 	sw	a1,24592(a0)
    U1STAbits.URXEN = 1;
9d0084e0:	8c856010 	lw	a1,24592(a0)
9d0084e4:	7c656304 	ins	a1,v1,0xc,0x1
9d0084e8:	ac856010 	sw	a1,24592(a0)
    // configure without hardware flow control
    U1MODEbits.UEN = 0;
9d0084ec:	94446000 	lhu	a0,24576(v0)
9d0084f0:	7c044a04 	ins	a0,zero,0x8,0x2
9d0084f4:	a4446000 	sh	a0,24576(v0)

    // enable the uart
    U1MODEbits.ON = 1;
9d0084f8:	94446000 	lhu	a0,24576(v0)
9d0084fc:	7c647bc4 	ins	a0,v1,0xf,0x1
9d008500:	a4446000 	sh	a0,24576(v0)

    __builtin_enable_interrupts();
9d008504:	41626020 	ei	v0
}
9d008508:	8fbf0004 	lw	ra,4(sp)
9d00850c:	03e00008 	jr	ra
9d008510:	27bd0008 	addiu	sp,sp,8

9d008514 <NU32DIP_ReadUART1>:
// block other functions until you get a '\r' or '\n'
// send the pointer to your char array and the number of elements in the array

void NU32DIP_ReadUART1(char * message, int maxLength) {
    char data = 0;
    int complete = 0, num_bytes = 0;
9d008514:	00001025 	move	v0,zero
    // loop until you get a '\r' or '\n'
    while (!complete) {
        if (U1STAbits.URXDA) { // if data is available
9d008518:	3c0abf80 	lui	t2,0xbf80
            data = U1RXREG; // read the data
9d00851c:	3c09bf80 	lui	t1,0xbf80
            if ((data == '\n') || (data == '\r')) {
9d008520:	2408000a 	li	t0,10
9d008524:	2407000d 	li	a3,13
        if (U1STAbits.URXDA) { // if data is available
9d008528:	8d436010 	lw	v1,24592(t2)
9d00852c:	30630001 	andi	v1,v1,0x1
9d008530:	1060fffd 	beqz	v1,9d008528 <NU32DIP_ReadUART1+0x14>
9d008534:	00000000 	nop
            data = U1RXREG; // read the data
9d008538:	8d236030 	lw	v1,24624(t1)
9d00853c:	7c031c20 	seb	v1,v1
            if ((data == '\n') || (data == '\r')) {
9d008540:	5068000b 	beql	v1,t0,9d008570 <NU32DIP_ReadUART1+0x5c>
9d008544:	00822021 	addu	a0,a0,v0
9d008548:	10670008 	beq	v1,a3,9d00856c <NU32DIP_ReadUART1+0x58>
9d00854c:	24460001 	addiu	a2,v0,1
                complete = 1;
            } else {
                message[num_bytes] = data;
                ++num_bytes;
                // roll over if the array is too small
                if (num_bytes >= maxLength) {
9d008550:	00c5302a 	slt	a2,a2,a1
                    num_bytes = 0;
9d008554:	244b0001 	addiu	t3,v0,1
                message[num_bytes] = data;
9d008558:	00821021 	addu	v0,a0,v0
9d00855c:	a0430000 	sb	v1,0(v0)
9d008560:	01601025 	move	v0,t3
9d008564:	1000fff0 	b	9d008528 <NU32DIP_ReadUART1+0x14>
9d008568:	0006100a 	movz	v0,zero,a2
                }
            }
        }
    }
    // end the string
    message[num_bytes] = '\0';
9d00856c:	00822021 	addu	a0,a0,v0
}
9d008570:	03e00008 	jr	ra
9d008574:	a0800000 	sb	zero,0(a0)

9d008578 <NU32DIP_WriteUART1>:

// Write a character array using UART1

void NU32DIP_WriteUART1(const char * string) {
    while (*string != '\0') {
9d008578:	80820000 	lb	v0,0(a0)
9d00857c:	1040000b 	beqz	v0,9d0085ac <NU32DIP_WriteUART1+0x34>
9d008580:	3c06bf80 	lui	a2,0xbf80
        while (U1STAbits.UTXBF) {
            ; // wait until tx buffer isn't full
        }
        U1TXREG = *string;
9d008584:	3c05bf80 	lui	a1,0xbf80
        while (U1STAbits.UTXBF) {
9d008588:	8cc36010 	lw	v1,24592(a2)
9d00858c:	7c630240 	ext	v1,v1,0x9,0x1
9d008590:	1460fffd 	bnez	v1,9d008588 <NU32DIP_WriteUART1+0x10>
9d008594:	00000000 	nop
        U1TXREG = *string;
9d008598:	aca26020 	sw	v0,24608(a1)
        ++string;
9d00859c:	24840001 	addiu	a0,a0,1
    while (*string != '\0') {
9d0085a0:	80820000 	lb	v0,0(a0)
9d0085a4:	1440fff8 	bnez	v0,9d008588 <NU32DIP_WriteUART1+0x10>
9d0085a8:	00000000 	nop
    }
}
9d0085ac:	03e00008 	jr	ra
9d0085b0:	00000000 	nop

Disassembly of section .text.libm:

9d0085b4 <reduct>:
9d0085b4:	00054040 00084542 00053ac0 00047d42     @@..BE...:..B}..
9d0085c4:	00ef3825 000432c0 3c018000 00e13825     %8...2.....<%8..
9d0085d4:	2509fc02 0520005a 00000000 29210041     ...%Z. .....A.!)
9d0085e4:	1020005c 00000000 00063042 00077fc0     \. .....B0......
9d0085f4:	00cf3025 00073842 3c0e6000 3c0d10b4     %0..B8...`.<...<
9d008604:	35ad611a 3c0c6487 358ced51 240affff     .a.5.d.<Q..5...$
9d008614:	240b0000                                ...$

9d008618 <Alab3>:
9d008618:	000a5040 	sll	t2,t2,0x1
9d00861c:	016e782b 	sltu	t7,t3,t6
9d008620:	016e5823 	subu	t3,t3,t6
9d008624:	00cf102b 	sltu	v0,a2,t7
9d008628:	00cf3023 	subu	a2,a2,t7
9d00862c:	00cd782b 	sltu	t7,a2,t5
9d008630:	01e27825 	or	t7,t7,v0
9d008634:	00cd3023 	subu	a2,a2,t5
9d008638:	00ef102b 	sltu	v0,a3,t7
9d00863c:	00ef3823 	subu	a3,a3,t7
9d008640:	00ec782b 	sltu	t7,a3,t4
9d008644:	01e27825 	or	t7,t7,v0
9d008648:	11e0000e 	beqz	t7,9d008684 <i1>
9d00864c:	00ec3823 	subu	a3,a3,t4
9d008650:	016e5821 	addu	t3,t3,t6
9d008654:	016e782b 	sltu	t7,t3,t6
9d008658:	00cd3021 	addu	a2,a2,t5
9d00865c:	00cf3021 	addu	a2,a2,t7
9d008660:	10cd0002 	beq	a2,t5,9d00866c <L1>
9d008664:	00000000 	nop
9d008668:	00cd782b 	sltu	t7,a2,t5

9d00866c <L1>:
9d00866c:	00ec3821 	addu	a3,a3,t4
9d008670:	00ef3821 	addu	a3,a3,t7
9d008674:	10ec0002 	beq	a3,t4,9d008680 <L2>
9d008678:	00000000 	nop
9d00867c:	00ec782b 	sltu	t7,a3,t4

9d008680 <L2>:
9d008680:	254a0001 	addiu	t2,t2,1

9d008684 <i1>:
9d008684:	0160782a 	slt	t7,t3,zero
9d008688:	016b5821 	addu	t3,t3,t3
9d00868c:	00c0102a 	slt	v0,a2,zero
9d008690:	00c63021 	addu	a2,a2,a2
9d008694:	00cf3021 	addu	a2,a2,t7
9d008698:	00027825 	or	t7,zero,v0
9d00869c:	00e73821 	addu	a3,a3,a3
9d0086a0:	00ef3821 	addu	a3,a3,t7
9d0086a4:	2529ffff 	addiu	t1,t1,-1
9d0086a8:	0521ffdb 	bgez	t1,9d008618 <Alab3>
9d0086ac:	00000000 	nop
9d0086b0:	2401ffff 	li	at,-1
9d0086b4:	01415026 	xor	t2,t2,at
9d0086b8:	314f0001 	andi	t7,t2,0x1
9d0086bc:	11e00012 	beqz	t7,9d008708 <i2>
9d0086c0:	00000000 	nop
9d0086c4:	000b4825 	or	t1,zero,t3
9d0086c8:	000e5840 	sll	t3,t6,0x1
9d0086cc:	0169782b 	sltu	t7,t3,t1
9d0086d0:	01695823 	subu	t3,t3,t1
9d0086d4:	00064825 	or	t1,zero,a2
9d0086d8:	3c062168 	lui	a2,0x2168
9d0086dc:	34c6c234 	ori	a2,a2,0xc234
9d0086e0:	00cf102b 	sltu	v0,a2,t7
9d0086e4:	00cf3023 	subu	a2,a2,t7
9d0086e8:	00c9782b 	sltu	t7,a2,t1
9d0086ec:	01e27825 	or	t7,t7,v0
9d0086f0:	00c93023 	subu	a2,a2,t1
9d0086f4:	00074825 	or	t1,zero,a3
9d0086f8:	3c07c90f 	lui	a3,0xc90f
9d0086fc:	34e7daa2 	ori	a3,a3,0xdaa2
9d008700:	00ef3823 	subu	a3,a3,t7
9d008704:	00e93823 	subu	a3,a3,t1

9d008708 <i2>:
9d008708:	240803fe 	li	t0,1022

9d00870c <b3>:
9d00870c:	04e0000b 	bltz	a3,9d00873c <i3>
9d008710:	00000000 	nop
9d008714:	0160782a 	slt	t7,t3,zero
9d008718:	016b5821 	addu	t3,t3,t3
9d00871c:	00c0102a 	slt	v0,a2,zero
9d008720:	00c63021 	addu	a2,a2,a2
9d008724:	00cf3021 	addu	a2,a2,t7
9d008728:	00027825 	or	t7,zero,v0
9d00872c:	00e73821 	addu	a3,a3,a3
9d008730:	00ef3821 	addu	a3,a3,t7
9d008734:	1000fff5 	b	9d00870c <b3>
9d008738:	2508ffff 	addiu	t0,t0,-1

9d00873c <i3>:
9d00873c:	000a7f40 	sll	t7,t2,0x1d
9d008740:	010f4025 	or	t0,t0,t7

9d008744 <Aret2>:
9d008744:	00061025 	or	v0,zero,a2
9d008748:	00071825 	or	v1,zero,a3
9d00874c:	0008c025 	or	t8,zero,t0

9d008750 <A999>:
9d008750:	03e00008 	jr	ra
9d008754:	00000000 	nop

9d008758 <Anan>:
9d008758:	2408ffff 	li	t0,-1
9d00875c:	3c07c000 	lui	a3,0xc000
9d008760:	1000fff8 	b	9d008744 <Aret2>
9d008764:	24060000 	li	a2,0
9d008768:	00000000 	nop

Disassembly of section .text:

9d00876c <dpsin>:
9d00876c:	27bdffd0 	addiu	sp,sp,-48
9d008770:	afbf0000 	sw	ra,0(sp)
9d008774:	afa40004 	sw	a0,4(sp)
9d008778:	0f40216d 	jal	9d0085b4 <reduct>
9d00877c:	afa50008 	sw	a1,8(sp)
9d008780:	00184825 	or	t1,zero,t8
9d008784:	00034025 	or	t0,zero,v1
9d008788:	00023825 	or	a3,zero,v0
9d00878c:	8fa50008 	lw	a1,8(sp)
9d008790:	8fa40004 	lw	a0,4(sp)
9d008794:	00a92826 	xor	a1,a1,t1
9d008798:	3c018000 	lui	at,0x8000
9d00879c:	00a12824 	and	a1,a1,at
9d0087a0:	2401ffff 	li	at,-1
9d0087a4:	1121004a 	beq	t1,at,9d0088d0 <Bret>
9d0087a8:	00000000 	nop
9d0087ac:	00093742 	srl	a2,t1,0x1d
9d0087b0:	312907ff 	andi	t1,t1,0x7ff
9d0087b4:	afa50008 	sw	a1,8(sp)
9d0087b8:	afa6000c 	sw	a2,12(sp)
9d0087bc:	afa70010 	sw	a3,16(sp)
9d0087c0:	afa80014 	sw	t0,20(sp)
9d0087c4:	afa90018 	sw	t1,24(sp)
9d0087c8:	00072025 	or	a0,zero,a3
9d0087cc:	00082825 	or	a1,zero,t0
9d0087d0:	0f4022fc 	jal	9d008bf0 <exmul>
9d0087d4:	00093025 	or	a2,zero,t1
9d0087d8:	00186025 	or	t4,zero,t8
9d0087dc:	00035825 	or	t3,zero,v1
9d0087e0:	00025025 	or	t2,zero,v0
9d0087e4:	8fa90018 	lw	t1,24(sp)
9d0087e8:	8fa80014 	lw	t0,20(sp)
9d0087ec:	8fa70010 	lw	a3,16(sp)
9d0087f0:	8fa6000c 	lw	a2,12(sp)
9d0087f4:	8fa50008 	lw	a1,8(sp)
9d0087f8:	8fa40004 	lw	a0,4(sp)
9d0087fc:	24cdffff 	addiu	t5,a2,-1
9d008800:	31ad0002 	andi	t5,t5,0x2
9d008804:	11a0001c 	beqz	t5,9d008878 <i4>
9d008808:	00000000 	nop
9d00880c:	000a2025 	or	a0,zero,t2
9d008810:	000b2825 	or	a1,zero,t3
9d008814:	000c3025 	or	a2,zero,t4
9d008818:	24070005 	li	a3,5
9d00881c:	3c08a000 	lui	t0,0xa000
9d008820:	0f402242 	jal	9d008908 <sigmax>
9d008824:	25080000 	addiu	t0,t0,0
9d008828:	afa2001c 	sw	v0,28(sp)
9d00882c:	afa30020 	sw	v1,32(sp)
9d008830:	afb80024 	sw	t8,36(sp)
9d008834:	00022025 	or	a0,zero,v0
9d008838:	00032825 	or	a1,zero,v1
9d00883c:	00183025 	or	a2,zero,t8
9d008840:	8fa70010 	lw	a3,16(sp)
9d008844:	8fa80014 	lw	t0,20(sp)
9d008848:	0f4022fc 	jal	9d008bf0 <exmul>
9d00884c:	8fa90018 	lw	t1,24(sp)
9d008850:	00184825 	or	t1,zero,t8
9d008854:	00034025 	or	t0,zero,v1
9d008858:	00023825 	or	a3,zero,v0
9d00885c:	8fac0024 	lw	t4,36(sp)
9d008860:	8fab0020 	lw	t3,32(sp)
9d008864:	8faa001c 	lw	t2,28(sp)
9d008868:	8fa6000c 	lw	a2,12(sp)
9d00886c:	8fa50008 	lw	a1,8(sp)
9d008870:	10000017 	b	9d0088d0 <Bret>
9d008874:	8fa40004 	lw	a0,4(sp)

9d008878 <i4>:
9d008878:	afa40004 	sw	a0,4(sp)
9d00887c:	afa50008 	sw	a1,8(sp)
9d008880:	afa6000c 	sw	a2,12(sp)
9d008884:	afaa001c 	sw	t2,28(sp)
9d008888:	afab0020 	sw	t3,32(sp)
9d00888c:	afac0024 	sw	t4,36(sp)
9d008890:	000a2025 	or	a0,zero,t2
9d008894:	000b2825 	or	a1,zero,t3
9d008898:	000c3025 	or	a2,zero,t4
9d00889c:	24070005 	li	a3,5
9d0088a0:	3c08a000 	lui	t0,0xa000
9d0088a4:	0f402242 	jal	9d008908 <sigmax>
9d0088a8:	25080038 	addiu	t0,t0,56
9d0088ac:	00184825 	or	t1,zero,t8
9d0088b0:	00034025 	or	t0,zero,v1
9d0088b4:	00023825 	or	a3,zero,v0
9d0088b8:	8fac0024 	lw	t4,36(sp)
9d0088bc:	8fab0020 	lw	t3,32(sp)
9d0088c0:	8faa001c 	lw	t2,28(sp)
9d0088c4:	8fa6000c 	lw	a2,12(sp)
9d0088c8:	8fa50008 	lw	a1,8(sp)
9d0088cc:	8fa40004 	lw	a0,4(sp)

9d0088d0 <Bret>:
9d0088d0:	000722c2 	srl	a0,a3,0xb
9d0088d4:	00086d40 	sll	t5,t0,0x15
9d0088d8:	008d2025 	or	a0,a0,t5
9d0088dc:	00086840 	sll	t5,t0,0x1
9d0088e0:	000d6b02 	srl	t5,t5,0xc
9d0088e4:	00ad2825 	or	a1,a1,t5
9d0088e8:	00096d00 	sll	t5,t1,0x14
9d0088ec:	00ad2825 	or	a1,a1,t5
9d0088f0:	00041025 	or	v0,zero,a0
9d0088f4:	00051825 	or	v1,zero,a1

9d0088f8 <B999>:
9d0088f8:	8fbf0000 	lw	ra,0(sp)
9d0088fc:	03e00008 	jr	ra
9d008900:	27bd0030 	addiu	sp,sp,48
9d008904:	00000000 	nop

Disassembly of section .text.libm:

9d008908 <sigmax>:
9d008908:	240903fe 01264823                       ...$#H&.

9d008910 <L1>:
9d008910:	2d210020 	sltiu	at,t1,32
9d008914:	14200005 	bnez	at,9d00892c <L2>
9d008918:	00000000 	nop
9d00891c:	00052025 	or	a0,zero,a1
9d008920:	24050000 	li	a1,0
9d008924:	1480fffa 	bnez	a0,9d008910 <L1>
9d008928:	2529ffe0 	addiu	t1,t1,-32

9d00892c <L2>:
9d00892c:	11200008 	beqz	t1,9d008950 <L3>
9d008930:	00000000 	nop
9d008934:	00055025 	or	t2,zero,a1
9d008938:	01242006 	srlv	a0,a0,t1
9d00893c:	01252806 	srlv	a1,a1,t1
9d008940:	240c0020 	li	t4,32
9d008944:	01894823 	subu	t1,t4,t1
9d008948:	012a5004 	sllv	t2,t2,t1
9d00894c:	008a2025 	or	a0,a0,t2

9d008950 <L3>:
9d008950:	8d0a0000 	lw	t2,0(t0)
9d008954:	25080004 	addiu	t0,t0,4
9d008958:	8d0b0000 	lw	t3,0(t0)
9d00895c:	25080004 	addiu	t0,t0,4

9d008960 <b1>:
9d008960:	00aa0019 	multu	a1,t2
9d008964:	00005010 	mfhi	t2
9d008968:	00ab0019 	multu	a1,t3
9d00896c:	00004812 	mflo	t1
9d008970:	00003010 	mfhi	a2
9d008974:	01495021 	addu	t2,t2,t1
9d008978:	0149602b 	sltu	t4,t2,t1
9d00897c:	00cc3021 	addu	a2,a2,t4
9d008980:	008b0019 	multu	a0,t3
9d008984:	00004810 	mfhi	t1
9d008988:	01495021 	addu	t2,t2,t1
9d00898c:	0149602b 	sltu	t4,t2,t1
9d008990:	05610005 	bgez	t3,9d0089a8 <i2>
9d008994:	00cc3021 	addu	a2,a2,t4
9d008998:	0144602b 	sltu	t4,t2,a0
9d00899c:	01445023 	subu	t2,t2,a0
9d0089a0:	00cc3023 	subu	a2,a2,t4
9d0089a4:	00c53023 	subu	a2,a2,a1

9d0089a8 <i2>:
9d0089a8:	00065825 	or	t3,zero,a2
9d0089ac:	8d090000 	lw	t1,0(t0)
9d0089b0:	25080004 	addiu	t0,t0,4
9d0089b4:	8d060000 	lw	a2,0(t0)
9d0089b8:	25080004 	addiu	t0,t0,4
9d0089bc:	01495021 	addu	t2,t2,t1
9d0089c0:	0149602b 	sltu	t4,t2,t1
9d0089c4:	01665821 	addu	t3,t3,a2
9d0089c8:	016c5821 	addu	t3,t3,t4
9d0089cc:	24e7ffff 	addiu	a3,a3,-1
9d0089d0:	04e1ffe3 	bgez	a3,9d008960 <b1>
9d0089d4:	00000000 	nop
9d0089d8:	05600006 	bltz	t3,9d0089f4 <i3>
9d0089dc:	240603ff 	li	a2,1023
9d0089e0:	0140602a 	slt	t4,t2,zero
9d0089e4:	014a5021 	addu	t2,t2,t2
9d0089e8:	016b5821 	addu	t3,t3,t3
9d0089ec:	016c5821 	addu	t3,t3,t4
9d0089f0:	24c6ffff 	addiu	a2,a2,-1

9d0089f4 <i3>:
9d0089f4:	000a2025 	or	a0,zero,t2
9d0089f8:	000b2825 	or	a1,zero,t3
9d0089fc:	00041025 	or	v0,zero,a0
9d008a00:	00051825 	or	v1,zero,a1
9d008a04:	0006c025 	or	t8,zero,a2

9d008a08 <A999>:
9d008a08:	03e00008 	jr	ra
9d008a0c:	00000000 	nop
9d008a10:	00000000 	nop

Disassembly of section .text.dptofp:

9d008a14 <__truncdfsf2>:
9d008a14:	00053ac0 00045d42 00eb3825 000432c0     .:..B]..%8...2..
9d008a24:	3c018000 00e13825 3c018000 00a14824     ...<%8.....<$H..
9d008a34:	00054040 00084542 2508fc80 250bffff     @@..BE.....%...%
9d008a44:	2d6100fe 10200012 00000000              ..a-.. .....

9d008a50 <Hlab1>:
9d008a50:	10c00002 	beqz	a2,9d008a5c <i45>
9d008a54:	00000000 	nop
9d008a58:	34e70001 	ori	a3,a3,0x1

9d008a5c <i45>:
9d008a5c:	24e70080 	addiu	a3,a3,128
9d008a60:	2ceb0080 	sltiu	t3,a3,128
9d008a64:	010b4021 	addu	t0,t0,t3
9d008a68:	00075a02 	srl	t3,a3,0x8
9d008a6c:	316b0001 	andi	t3,t3,0x1
9d008a70:	00eb3823 	subu	a3,a3,t3
9d008a74:	00073840 	sll	a3,a3,0x1
9d008a78:	00073a42 	srl	a3,a3,0x9
9d008a7c:	00085dc0 	sll	t3,t0,0x17
9d008a80:	00eb3825 	or	a3,a3,t3
9d008a84:	00e91025 	or	v0,a3,t1

9d008a88 <H999>:
9d008a88:	03e00008 	jr	ra
9d008a8c:	00000000 	nop
9d008a90:	00000000 	nop

9d008a94 <Hspec>:
9d008a94:	2401047f 	li	at,1151
9d008a98:	15010007 	bne	t0,at,9d008ab8 <i46>
9d008a9c:	00000000 	nop
9d008aa0:	00075840 	sll	t3,a3,0x1
9d008aa4:	01665825 	or	t3,t3,a2
9d008aa8:	11600003 	beqz	t3,9d008ab8 <i46>
9d008aac:	00000000 	nop
9d008ab0:	1000fff5 	b	9d008a88 <H999>
9d008ab4:	3c02ffc0 	lui	v0,0xffc0

9d008ab8 <i46>:
9d008ab8:	290100ff 	slti	at,t0,255
9d008abc:	14200004 	bnez	at,9d008ad0 <i48>
9d008ac0:	00000000 	nop
9d008ac4:	3c017f80 	lui	at,0x7f80
9d008ac8:	1000ffef 	b	9d008a88 <H999>
9d008acc:	01211025 	or	v0,t1,at

9d008ad0 <i48>:
9d008ad0:	240a0001 	li	t2,1
9d008ad4:	01485023 	subu	t2,t2,t0
9d008ad8:	2d410020 	sltiu	at,t2,32
9d008adc:	14200003 	bnez	at,9d008aec <i49>
9d008ae0:	00000000 	nop
9d008ae4:	1000ffe8 	b	9d008a88 <H999>
9d008ae8:	00091025 	or	v0,zero,t1

9d008aec <i49>:
9d008aec:	240c0020 	li	t4,32
9d008af0:	018a6023 	subu	t4,t4,t2
9d008af4:	01875804 	sllv	t3,a3,t4
9d008af8:	00cb3025 	or	a2,a2,t3
9d008afc:	01473806 	srlv	a3,a3,t2
9d008b00:	24080000 	li	t0,0
9d008b04:	3c018000 	lui	at,0x8000
9d008b08:	1000ffd1 	b	9d008a50 <Hlab1>
9d008b0c:	00e13825 	or	a3,a3,at
9d008b10:	00000000 	nop

Disassembly of section .text.general_exception:

9d008b14 <_general_exception_context>:
9d008b14:	27bdffa8 	addiu	sp,sp,-88
9d008b18:	afa10004 	sw	at,4(sp)
9d008b1c:	afa20008 	sw	v0,8(sp)
9d008b20:	afa3000c 	sw	v1,12(sp)
9d008b24:	afa40010 	sw	a0,16(sp)
9d008b28:	afa50014 	sw	a1,20(sp)
9d008b2c:	afa60018 	sw	a2,24(sp)
9d008b30:	afa7001c 	sw	a3,28(sp)
9d008b34:	afa80020 	sw	t0,32(sp)
9d008b38:	afa90024 	sw	t1,36(sp)
9d008b3c:	afaa0028 	sw	t2,40(sp)
9d008b40:	afab002c 	sw	t3,44(sp)
9d008b44:	afac0030 	sw	t4,48(sp)
9d008b48:	afad0034 	sw	t5,52(sp)
9d008b4c:	afae0038 	sw	t6,56(sp)
9d008b50:	afaf003c 	sw	t7,60(sp)
9d008b54:	afb80040 	sw	t8,64(sp)
9d008b58:	afb90044 	sw	t9,68(sp)
9d008b5c:	afbf0048 	sw	ra,72(sp)
9d008b60:	00004012 	mflo	t0
9d008b64:	afa8004c 	sw	t0,76(sp)
9d008b68:	00004010 	mfhi	t0
9d008b6c:	afa80050 	sw	t0,80(sp)
9d008b70:	3c1a9d01 	lui	k0,0x9d01
9d008b74:	275a8fb4 	addiu	k0,k0,-28748
9d008b78:	00000000 	nop
9d008b7c:	40046800 	mfc0	a0,c0_cause
9d008b80:	40056000 	mfc0	a1,c0_status
9d008b84:	0340f809 	jalr	k0
9d008b88:	00000000 	nop
9d008b8c:	8fa80050 	lw	t0,80(sp)
9d008b90:	01000011 	mthi	t0
9d008b94:	8fa8004c 	lw	t0,76(sp)
9d008b98:	01000013 	mtlo	t0
9d008b9c:	8fa10004 	lw	at,4(sp)
9d008ba0:	8fa20008 	lw	v0,8(sp)
9d008ba4:	8fa3000c 	lw	v1,12(sp)
9d008ba8:	8fa40010 	lw	a0,16(sp)
9d008bac:	8fa50014 	lw	a1,20(sp)
9d008bb0:	8fa60018 	lw	a2,24(sp)
9d008bb4:	8fa7001c 	lw	a3,28(sp)
9d008bb8:	8fa80020 	lw	t0,32(sp)
9d008bbc:	8fa90024 	lw	t1,36(sp)
9d008bc0:	8faa0028 	lw	t2,40(sp)
9d008bc4:	8fab002c 	lw	t3,44(sp)
9d008bc8:	8fac0030 	lw	t4,48(sp)
9d008bcc:	8fad0034 	lw	t5,52(sp)
9d008bd0:	8fae0038 	lw	t6,56(sp)
9d008bd4:	8faf003c 	lw	t7,60(sp)
9d008bd8:	8fb80040 	lw	t8,64(sp)
9d008bdc:	8fb90044 	lw	t9,68(sp)
9d008be0:	8fbf0048 	lw	ra,72(sp)
9d008be4:	27bd0058 	addiu	sp,sp,88
9d008be8:	000000c0 	ehb
9d008bec:	42000018 	eret

Disassembly of section .text.libm:

9d008bf0 <exmul>:
9d008bf0:	00a80019 00005812 00005010 00a70019     .....X...P......
9d008c00:	00006812 00006010 016c5821 016c782b     .h...`..!Xl.+xl.
9d008c10:	014f5021 00880019 00007012 00006010     !PO......p...`..
9d008c20:	01cd7021 01cd782b 016c5821 016f5821     !p..+x..!Xl.!Xo.
9d008c30:	116c0002 00000000 016c782b              ..l.....+xl.

9d008c3c <L4>:
9d008c3c:	014f5021 	addu	t2,t2,t7
9d008c40:	01c0782a 	slt	t7,t6,zero
9d008c44:	01ce7021 	addu	t6,t6,t6
9d008c48:	016f5821 	addu	t3,t3,t7
9d008c4c:	016f782b 	sltu	t7,t3,t7
9d008c50:	014f5021 	addu	t2,t2,t7
9d008c54:	0540000c 	bltz	t2,9d008c88 <i4>
9d008c58:	00000000 	nop
9d008c5c:	11400013 	beqz	t2,9d008cac <Bzer>
9d008c60:	00000000 	nop
9d008c64:	01c0782a 	slt	t7,t6,zero
9d008c68:	01ce7021 	addu	t6,t6,t6
9d008c6c:	0160102a 	slt	v0,t3,zero
9d008c70:	016b5821 	addu	t3,t3,t3
9d008c74:	016f5821 	addu	t3,t3,t7
9d008c78:	00027825 	or	t7,zero,v0
9d008c7c:	014a5021 	addu	t2,t2,t2
9d008c80:	014f5021 	addu	t2,t2,t7
9d008c84:	24c6ffff 	addiu	a2,a2,-1

9d008c88 <i4>:
9d008c88:	00c93021 	addu	a2,a2,t1
9d008c8c:	24c6fc02 	addiu	a2,a2,-1022
9d008c90:	000b2025 	or	a0,zero,t3
9d008c94:	000a2825 	or	a1,zero,t2

9d008c98 <Bret>:
9d008c98:	00041025 	or	v0,zero,a0
9d008c9c:	00051825 	or	v1,zero,a1
9d008ca0:	0006c025 	or	t8,zero,a2

9d008ca4 <B999>:
9d008ca4:	03e00008 	jr	ra
9d008ca8:	00000000 	nop

9d008cac <Bzer>:
9d008cac:	24060000 	li	a2,0
9d008cb0:	00062825 	or	a1,zero,a2
9d008cb4:	1000fff8 	b	9d008c98 <Bret>
9d008cb8:	00062025 	or	a0,zero,a2
9d008cbc:	00000000 	nop

Disassembly of section .text.dinit.startup:

9d008cc0 <__pic32_data_init_impl>:
9d008cc0:	3c089d01 	lui	t0,0x9d01
9d008cc4:	25088dc0 	addiu	t0,t0,-29248
9d008cc8:	1100001b 	beqz	t0,9d008d38 <_dinit_end+0x18>
9d008ccc:	00000000 	nop
9d008cd0:	8d090000 	lw	t1,0(t0)
9d008cd4:	11200018 	beqz	t1,9d008d38 <_dinit_end+0x18>
9d008cd8:	25080004 	addiu	t0,t0,4
9d008cdc:	8d0a0000 	lw	t2,0(t0)
9d008ce0:	25080004 	addiu	t0,t0,4
9d008ce4:	8d0b0000 	lw	t3,0(t0)
9d008ce8:	11600009 	beqz	t3,9d008d10 <_dinit_clear>
9d008cec:	25080004 	addiu	t0,t0,4

9d008cf0 <_dinit_copy>:
9d008cf0:	910c0000 	lbu	t4,0(t0)
9d008cf4:	254affff 	addiu	t2,t2,-1
9d008cf8:	25080001 	addiu	t0,t0,1
9d008cfc:	a12c0000 	sb	t4,0(t1)
9d008d00:	1540fffb 	bnez	t2,9d008cf0 <_dinit_copy>
9d008d04:	25290001 	addiu	t1,t1,1
9d008d08:	10000005 	b	9d008d20 <_dinit_end>
9d008d0c:	00000000 	nop

9d008d10 <_dinit_clear>:
9d008d10:	a1200000 	sb	zero,0(t1)
9d008d14:	254affff 	addiu	t2,t2,-1
9d008d18:	1540fffd 	bnez	t2,9d008d10 <_dinit_clear>
9d008d1c:	25290001 	addiu	t1,t1,1

9d008d20 <_dinit_end>:
9d008d20:	25080003 	addiu	t0,t0,3
9d008d24:	240afffc 	li	t2,-4
9d008d28:	01484024 	and	t0,t2,t0
9d008d2c:	8d090000 	lw	t1,0(t0)
9d008d30:	1520ffe7 	bnez	t1,9d008cd0 <__pic32_data_init_impl+0x10>
9d008d34:	00000000 	nop
9d008d38:	03e00008 	jr	ra
9d008d3c:	00000000 	nop

Disassembly of section .text.fptoli:

9d008d40 <__fixsfsi>:
9d008d40:	00042a00 3c018000 00a12825 00043dc2     .*.....<%(...=..
9d008d50:	30e700ff 2406009e 00c73023 18c0000d     ...0...$#0......
9d008d60:	00000000 28c10020 14200003 00000000     .... ..(.. .....
9d008d70:	10000005 24020000                       .......$

9d008d78 <i42>:
9d008d78:	04810002 	bgez	a0,9d008d84 <i43>
9d008d7c:	00c52806 	srlv	a1,a1,a2
9d008d80:	00052823 	negu	a1,a1

9d008d84 <i43>:
9d008d84:	00051025 	or	v0,zero,a1

9d008d88 <G999>:
9d008d88:	03e00008 	jr	ra
9d008d8c:	00000000 	nop
9d008d90:	00000000 	nop

9d008d94 <Gspec>:
9d008d94:	3c017f80 	lui	at,0x7f80
9d008d98:	34210001 	ori	at,at,0x1
9d008d9c:	0081082b 	sltu	at,a0,at
9d008da0:	14200003 	bnez	at,9d008db0 <i44>
9d008da4:	00000000 	nop
9d008da8:	1000fff7 	b	9d008d88 <G999>
9d008dac:	3c028000 	lui	v0,0x8000

9d008db0 <i44>:
9d008db0:	3c027fff 	lui	v0,0x7fff
9d008db4:	1000fff4 	b	9d008d88 <G999>
9d008db8:	3442ffff 	ori	v0,v0,0xffff
9d008dbc:	00000000 	nop

Disassembly of section .dinit:

9d008dc0 <.dinit>:
9d008dc0:	a0000000 	sb	zero,0(zero)
9d008dc4:	00000070 	tge	zero,zero,0x1
9d008dc8:	00000001 	movf	zero,zero,$fcc0
9d008dcc:	57bfb4b5 	bnel	sp,ra,9cff60a4 <_bmxdudba_address+0x9cfe60a4>
9d008dd0:	00000000 	nop
9d008dd4:	3386658e 	andi	a2,gp,0x658e
9d008dd8:	ffffffca 	sdc3	$31,-54(ra)
9d008ddc:	e3d5b754 	sc	s5,-18604(s8)
9d008de0:	0000171d 	0x171d
9d008de4:	f9636aa7 	sdc2	$3,27303(t3)
9d008de8:	fff97f97 	sdc3	$25,32663(ra)
9d008dec:	11171e6d 	beq	t0,s7,9d0107a4 <_on_bootstrap+0x76c4>
9d008df0:	01111111 	0x1111111
9d008df4:	aaaa28cc 	swl	t2,10444(s5)
9d008df8:	eaaaaaaa 	swc2	$10,-21846(s5)
9d008dfc:	00000557 	0x557
9d008e00:	80000000 	lb	zero,0(zero)
9d008e04:	6ede28b6 	0x6ede28b6
9d008e08:	00000004 	sllv	zero,zero,zero
9d008e0c:	404970f9 	0x404970f9
9d008e10:	fffffdb0 	sdc3	$31,-592(ra)
9d008e14:	fcc66699 	sdc3	$6,26265(a2)
9d008e18:	0000d00c 	syscall	0x340
9d008e1c:	d34d60fd 	0xd34d60fd
9d008e20:	ffd27d27 	sdc3	$18,32039(s8)
9d008e24:	55415881 	bnel	t2,at,9d01f02c <_on_bootstrap+0x15f4c>
9d008e28:	05555555 	0x5555555
9d008e2c:	0000b8bf 	0xb8bf
9d008e30:	c0000000 	ll	zero,0(zero)
9d008e34:	0000013d 	0x13d
9d008e38:	80000000 	lb	zero,0(zero)
9d008e3c:	00000000 	nop

Disassembly of section .text.litodp:

9d008e40 <__floatsidf>:
9d008e40:	24050000 00054825 00053825 00043025     ...$%H..%8..%0..
9d008e50:	10c0000c 00000000 04c10006 00000000     ................
9d008e60:	3c098000 0005502b 00052823 00063023     ...<+P..#(..#0..
9d008e70:	00ca3023                                #0..

9d008e74 <i40>:
9d008e74:	2407041e 	li	a3,1054
9d008e78:	70c84020 	clz	t0,a2
9d008e7c:	00e83823 	subu	a3,a3,t0
9d008e80:	01063004 	sllv	a2,a2,t0

9d008e84 <i39>:
9d008e84:	000542c2 	srl	t0,a1,0xb
9d008e88:	00065540 	sll	t2,a2,0x15
9d008e8c:	010a4025 	or	t0,t0,t2
9d008e90:	00065040 	sll	t2,a2,0x1
9d008e94:	000a5302 	srl	t2,t2,0xc
9d008e98:	012a4825 	or	t1,t1,t2
9d008e9c:	00075500 	sll	t2,a3,0x14
9d008ea0:	012a4825 	or	t1,t1,t2
9d008ea4:	00081025 	or	v0,zero,t0
9d008ea8:	00091825 	or	v1,zero,t1

9d008eac <E999>:
9d008eac:	03e00008 	jr	ra
9d008eb0:	00000000 	nop
9d008eb4:	00000000 	nop

Disassembly of section .text.sitofp:

9d008eb8 <__floatsisf>:
9d008eb8:	3c018000 10800012 00813024 04810002     ...<....$0......
9d008ec8:	00000000 00042023                       ....# ..

9d008ed0 <i40>:
9d008ed0:	2405009e 	li	a1,158
9d008ed4:	70873820 	clz	a3,a0
9d008ed8:	00a72823 	subu	a1,a1,a3
9d008edc:	00e42004 	sllv	a0,a0,a3
9d008ee0:	24840080 	addiu	a0,a0,128
9d008ee4:	2c880080 	sltiu	t0,a0,128
9d008ee8:	00a82821 	addu	a1,a1,t0
9d008eec:	00044203 	sra	t0,a0,0x8
9d008ef0:	31080001 	andi	t0,t0,0x1
9d008ef4:	00882023 	subu	a0,a0,t0
9d008ef8:	00042040 	sll	a0,a0,0x1
9d008efc:	00042242 	srl	a0,a0,0x9
9d008f00:	000545c0 	sll	t0,a1,0x17
9d008f04:	00882025 	or	a0,a0,t0

9d008f08 <i39>:
9d008f08:	00861025 	or	v0,a0,a2

9d008f0c <E999>:
9d008f0c:	03e00008 	jr	ra
9d008f10:	00000000 	nop
9d008f14:	00000000 	nop

Disassembly of section .text.main_entry:

9d008f18 <_main_entry>:
9d008f18:	3c040000 	lui	a0,0x0
9d008f1c:	27bdffe8 	addiu	sp,sp,-24
9d008f20:	24840000 	addiu	a0,a0,0
9d008f24:	10800003 	beqz	a0,9d008f34 <_main_entry+0x1c>
9d008f28:	afbf0014 	sw	ra,20(sp)
9d008f2c:	0080f809 	jalr	a0
9d008f30:	00000000 	nop
9d008f34:	30840000 	andi	a0,a0,0x0
9d008f38:	30a50000 	andi	a1,a1,0x0
9d008f3c:	3c089d00 	lui	t0,0x9d00
9d008f40:	25087ec8 	addiu	t0,t0,32456
9d008f44:	0100f809 	jalr	t0
9d008f48:	00000000 	nop

9d008f4c <__crt0_exit>:
9d008f4c:	3c020000 24420000 10400003 00000000     ...<..B$..@.....
9d008f5c:	0040f809 00000000 1000fff9 00000000     ..@.............

Disassembly of section .text._bootstrap_exception_handler:

9d008f6c <_bootstrap_exception_handler>:
9d008f6c:	3c020000 	lui	v0,0x0
9d008f70:	24420000 	addiu	v0,v0,0
9d008f74:	10400005 	beqz	v0,9d008f8c <_bootstrap_exception_handler+0x20>
9d008f78:	3c020000 	lui	v0,0x0
9d008f7c:	24420000 	addiu	v0,v0,0
9d008f80:	10400003 	beqz	v0,9d008f90 <_bootstrap_exception_handler+0x24>
9d008f84:	3c029d01 	lui	v0,0x9d01
9d008f88:	7000003f 	sdbbp
9d008f8c:	3c029d01 	lui	v0,0x9d01
9d008f90:	24429044 	addiu	v0,v0,-28604
9d008f94:	10400005 	beqz	v0,9d008fac <_bootstrap_exception_handler+0x40>
9d008f98:	00000000 	nop
9d008f9c:	27bdffe8 	addiu	sp,sp,-24
9d008fa0:	afbf0014 	sw	ra,20(sp)
9d008fa4:	0040f809 	jalr	v0
9d008fa8:	00000000 	nop
9d008fac:	1000ffff 	b	9d008fac <_bootstrap_exception_handler+0x40>
9d008fb0:	00000000 	nop

Disassembly of section .text._general_exception_handler:

9d008fb4 <_general_exception_handler>:
9d008fb4:	3c020000 	lui	v0,0x0
9d008fb8:	24420000 	addiu	v0,v0,0
9d008fbc:	10400005 	beqz	v0,9d008fd4 <_general_exception_handler+0x20>
9d008fc0:	3c020000 	lui	v0,0x0
9d008fc4:	24420000 	addiu	v0,v0,0
9d008fc8:	10400003 	beqz	v0,9d008fd8 <_general_exception_handler+0x24>
9d008fcc:	3c029d01 	lui	v0,0x9d01
9d008fd0:	7000003f 	sdbbp
9d008fd4:	3c029d01 	lui	v0,0x9d01
9d008fd8:	24429044 	addiu	v0,v0,-28604
9d008fdc:	10400005 	beqz	v0,9d008ff4 <_general_exception_handler+0x40>
9d008fe0:	00000000 	nop
9d008fe4:	27bdffe8 	addiu	sp,sp,-24
9d008fe8:	afbf0014 	sw	ra,20(sp)
9d008fec:	0040f809 	jalr	v0
9d008ff0:	00000000 	nop
9d008ff4:	1000ffff 	b	9d008ff4 <_general_exception_handler+0x40>
9d008ff8:	00000000 	nop

Disassembly of section .vector_default:

9d008ffc <_DefaultInterrupt>:
9d008ffc:	3c020000 	lui	v0,0x0
9d009000:	24420000 	addiu	v0,v0,0
9d009004:	10400007 	beqz	v0,9d009024 <_DefaultInterrupt+0x28>
9d009008:	3c020000 	lui	v0,0x0
9d00900c:	24420000 	addiu	v0,v0,0
9d009010:	50400005 	beqzl	v0,9d009028 <_DefaultInterrupt+0x2c>
9d009014:	3c029d01 	lui	v0,0x9d01
9d009018:	7000003f 	sdbbp
9d00901c:	03e00008 	jr	ra
9d009020:	00000000 	nop
9d009024:	3c029d01 	lui	v0,0x9d01
9d009028:	24429044 	addiu	v0,v0,-28604
9d00902c:	10400003 	beqz	v0,9d00903c <_DefaultInterrupt+0x40>
9d009030:	00000000 	nop
9d009034:	0040f809 	jalr	v0
9d009038:	00000000 	nop
9d00903c:	03e00008 	jr	ra
9d009040:	00000000 	nop

Disassembly of section .text:

9d009044 <__pic32_software_reset>:
9d009044:	41606000 	di
9d009048:	000000c0 	ehb
9d00904c:	3c03aa99 	lui	v1,0xaa99
9d009050:	3c02bf81 	lui	v0,0xbf81
9d009054:	24636655 	addiu	v1,v1,26197
9d009058:	ac40f230 	sw	zero,-3536(v0)
9d00905c:	ac43f230 	sw	v1,-3536(v0)
9d009060:	3c035566 	lui	v1,0x5566
9d009064:	346399aa 	ori	v1,v1,0x99aa
9d009068:	ac43f230 	sw	v1,-3536(v0)
9d00906c:	3c02bf81 	lui	v0,0xbf81
9d009070:	24030001 	li	v1,1
9d009074:	ac43f618 	sw	v1,-2536(v0)
9d009078:	3c02bf81 	lui	v0,0xbf81
9d00907c:	8c42f610 	lw	v0,-2544(v0)
9d009080:	0b402413 	j	9d00904c <__pic32_software_reset+0x8>
9d009084:	00000000 	nop

Disassembly of section .text.dinit.startup:

9d009088 <__pic32_data_init>:
9d009088:	03e01825 	move	v1,ra
9d00908c:	3c089d01 	lui	t0,0x9d01
9d009090:	25088cc0 	addiu	t0,t0,-29504
9d009094:	0100f809 	jalr	t0
9d009098:	00000000 	nop
9d00909c:	0060f825 	move	ra,v1
9d0090a0:	03e00008 	jr	ra
9d0090a4:	00000000 	nop

Disassembly of section .text:

9d0090c0 <_nmi_handler>:
9d0090c0:	401a6000 	mfc0	k0,c0_status
9d0090c4:	3c1bffbf 	lui	k1,0xffbf
9d0090c8:	377bffff 	ori	k1,k1,0xffff
9d0090cc:	035bd024 	and	k0,k0,k1
9d0090d0:	409a6000 	mtc0	k0,c0_status
9d0090d4:	42000018 	eret

Disassembly of section .text._on_reset:

9d0090d8 <_on_reset>:
9d0090d8:	03e00008 	jr	ra
9d0090dc:	00000000 	nop

Disassembly of section .text._on_bootstrap:

9d0090e0 <_on_bootstrap>:
9d0090e0:	03e00008 	jr	ra
9d0090e4:	00000000 	nop
